
my_driver.elf:     file format elf32-littlearm

Sections:
Idx Name          Size      VMA       LMA       File off  Algn
  0 .isr_vector   000000c0  08000000  08000000  00010000  2**0
                  CONTENTS, ALLOC, LOAD, READONLY, DATA
  1 .text         00000d34  080000c0  080000c0  000100c0  2**2
                  CONTENTS, ALLOC, LOAD, READONLY, CODE
  2 .rodata       00000000  08000df4  08000df4  00020064  2**0
                  CONTENTS, ALLOC, LOAD, DATA
  3 .ARM.extab    00000000  08000df4  08000df4  00020064  2**0
                  CONTENTS
  4 .ARM          00000000  08000df4  08000df4  00020064  2**0
                  CONTENTS
  5 .preinit_array 00000000  08000df4  08000df4  00020064  2**0
                  CONTENTS, ALLOC, LOAD, DATA
  6 .init_array   00000004  08000df4  08000df4  00010df4  2**2
                  CONTENTS, ALLOC, LOAD, DATA
  7 .fini_array   00000004  08000df8  08000df8  00010df8  2**2
                  CONTENTS, ALLOC, LOAD, DATA
  8 .data         00000064  20000000  08000dfc  00020000  2**2
                  CONTENTS, ALLOC, LOAD, DATA
  9 .bss          000000a0  20000064  08000e60  00020064  2**2
                  ALLOC
 10 ._user_heap_stack 00000604  20000104  08000e60  00020104  2**0
                  ALLOC
 11 .ARM.attributes 00000028  00000000  00000000  00020064  2**0
                  CONTENTS, READONLY
 12 .debug_line   000014dc  00000000  00000000  0002008c  2**0
                  CONTENTS, READONLY, DEBUGGING
 13 .debug_info   0000204a  00000000  00000000  00021568  2**0
                  CONTENTS, READONLY, DEBUGGING
 14 .debug_abbrev 00000564  00000000  00000000  000235b2  2**0
                  CONTENTS, READONLY, DEBUGGING
 15 .debug_aranges 000000f0  00000000  00000000  00023b18  2**3
                  CONTENTS, READONLY, DEBUGGING
 16 .debug_str    00007966  00000000  00000000  00023c08  2**0
                  CONTENTS, READONLY, DEBUGGING
 17 .debug_ranges 000000c8  00000000  00000000  0002b570  2**3
                  CONTENTS, READONLY, DEBUGGING
 18 .debug_macro  0000208a  00000000  00000000  0002b638  2**0
                  CONTENTS, READONLY, DEBUGGING
 19 .comment      0000007b  00000000  00000000  0002d6c2  2**0
                  CONTENTS, READONLY
 20 .debug_frame  00000358  00000000  00000000  0002d740  2**2
                  CONTENTS, READONLY, DEBUGGING

Disassembly of section .text:

080000c0 <__do_global_dtors_aux>:
 80000c0:	b510      	push	{r4, lr}
 80000c2:	4c06      	ldr	r4, [pc, #24]	; (80000dc <__do_global_dtors_aux+0x1c>)
 80000c4:	7823      	ldrb	r3, [r4, #0]
 80000c6:	2b00      	cmp	r3, #0
 80000c8:	d107      	bne.n	80000da <__do_global_dtors_aux+0x1a>
 80000ca:	4b05      	ldr	r3, [pc, #20]	; (80000e0 <__do_global_dtors_aux+0x20>)
 80000cc:	2b00      	cmp	r3, #0
 80000ce:	d002      	beq.n	80000d6 <__do_global_dtors_aux+0x16>
 80000d0:	4804      	ldr	r0, [pc, #16]	; (80000e4 <__do_global_dtors_aux+0x24>)
 80000d2:	e000      	b.n	80000d6 <__do_global_dtors_aux+0x16>
 80000d4:	bf00      	nop
 80000d6:	2301      	movs	r3, #1
 80000d8:	7023      	strb	r3, [r4, #0]
 80000da:	bd10      	pop	{r4, pc}
 80000dc:	20000064 	.word	0x20000064
 80000e0:	00000000 	.word	0x00000000
 80000e4:	08000ddc 	.word	0x08000ddc

080000e8 <frame_dummy>:
 80000e8:	4b04      	ldr	r3, [pc, #16]	; (80000fc <frame_dummy+0x14>)
 80000ea:	b510      	push	{r4, lr}
 80000ec:	2b00      	cmp	r3, #0
 80000ee:	d003      	beq.n	80000f8 <frame_dummy+0x10>
 80000f0:	4903      	ldr	r1, [pc, #12]	; (8000100 <frame_dummy+0x18>)
 80000f2:	4804      	ldr	r0, [pc, #16]	; (8000104 <frame_dummy+0x1c>)
 80000f4:	e000      	b.n	80000f8 <frame_dummy+0x10>
 80000f6:	bf00      	nop
 80000f8:	bd10      	pop	{r4, pc}
 80000fa:	46c0      	nop			; (mov r8, r8)
 80000fc:	00000000 	.word	0x00000000
 8000100:	20000068 	.word	0x20000068
 8000104:	08000ddc 	.word	0x08000ddc

08000108 <strlen>:
 8000108:	2300      	movs	r3, #0
 800010a:	5cc2      	ldrb	r2, [r0, r3]
 800010c:	3301      	adds	r3, #1
 800010e:	2a00      	cmp	r2, #0
 8000110:	d1fb      	bne.n	800010a <strlen+0x2>
 8000112:	1e58      	subs	r0, r3, #1
 8000114:	4770      	bx	lr
	...

08000118 <Reset_Handler>:

  .section .text.Reset_Handler
  .weak Reset_Handler
  .type Reset_Handler, %function
Reset_Handler:
  ldr   r0, =_estack
 8000118:	480d      	ldr	r0, [pc, #52]	; (8000150 <LoopForever+0x2>)
  mov   sp, r0          /* set stack pointer */
 800011a:	4685      	mov	sp, r0
/* Call the clock system intitialization function.*/
  bl  SystemInit
 800011c:	e000      	b.n	8000120 <Reset_Handler+0x8>
 800011e:	bf00      	nop

/* Copy the data segment initializers from flash to SRAM */
  ldr r0, =_sdata
 8000120:	480c      	ldr	r0, [pc, #48]	; (8000154 <LoopForever+0x6>)
  ldr r1, =_edata
 8000122:	490d      	ldr	r1, [pc, #52]	; (8000158 <LoopForever+0xa>)
  ldr r2, =_sidata
 8000124:	4a0d      	ldr	r2, [pc, #52]	; (800015c <LoopForever+0xe>)
  movs r3, #0
 8000126:	2300      	movs	r3, #0
  b LoopCopyDataInit
 8000128:	e002      	b.n	8000130 <LoopCopyDataInit>

0800012a <CopyDataInit>:

CopyDataInit:
  ldr r4, [r2, r3]
 800012a:	58d4      	ldr	r4, [r2, r3]
  str r4, [r0, r3]
 800012c:	50c4      	str	r4, [r0, r3]
  adds r3, r3, #4
 800012e:	3304      	adds	r3, #4

08000130 <LoopCopyDataInit>:

LoopCopyDataInit:
  adds r4, r0, r3
 8000130:	18c4      	adds	r4, r0, r3
  cmp r4, r1
 8000132:	428c      	cmp	r4, r1
  bcc CopyDataInit
 8000134:	d3f9      	bcc.n	800012a <CopyDataInit>

/* Zero fill the bss segment. */
  ldr r2, =_sbss
 8000136:	4a0a      	ldr	r2, [pc, #40]	; (8000160 <LoopForever+0x12>)
  ldr r4, =_ebss
 8000138:	4c0a      	ldr	r4, [pc, #40]	; (8000164 <LoopForever+0x16>)
  movs r3, #0
 800013a:	2300      	movs	r3, #0
  b LoopFillZerobss
 800013c:	e001      	b.n	8000142 <LoopFillZerobss>

0800013e <FillZerobss>:

FillZerobss:
  str  r3, [r2]
 800013e:	6013      	str	r3, [r2, #0]
  adds r2, r2, #4
 8000140:	3204      	adds	r2, #4

08000142 <LoopFillZerobss>:

LoopFillZerobss:
  cmp r2, r4
 8000142:	42a2      	cmp	r2, r4
  bcc FillZerobss
 8000144:	d3fb      	bcc.n	800013e <FillZerobss>

/* Call static constructors */
  bl __libc_init_array
 8000146:	f000 fd91 	bl	8000c6c <__libc_init_array>
/* Call the application's entry point.*/
  bl main
 800014a:	f000 fc67 	bl	8000a1c <main>

0800014e <LoopForever>:

LoopForever:
    b LoopForever
 800014e:	e7fe      	b.n	800014e <LoopForever>
  ldr   r0, =_estack
 8000150:	20002000 	.word	0x20002000
  ldr r0, =_sdata
 8000154:	20000000 	.word	0x20000000
  ldr r1, =_edata
 8000158:	20000064 	.word	0x20000064
  ldr r2, =_sidata
 800015c:	08000dfc 	.word	0x08000dfc
  ldr r2, =_sbss
 8000160:	20000064 	.word	0x20000064
  ldr r4, =_ebss
 8000164:	20000104 	.word	0x20000104

08000168 <ADC_COMP_IRQHandler>:
 * @retval : None
*/
  .section .text.Default_Handler,"ax",%progbits
Default_Handler:
Infinite_Loop:
  b Infinite_Loop
 8000168:	e7fe      	b.n	8000168 <ADC_COMP_IRQHandler>
	...

0800016c <USART_init>:

#include "USART_api.h"


void USART_init(USART_handle *pUSART)
{
 800016c:	b580      	push	{r7, lr}
 800016e:	b086      	sub	sp, #24
 8000170:	af00      	add	r7, sp, #0
 8000172:	6078      	str	r0, [r7, #4]

	//enable clock for USART1
	RCC_reg *pRCC = RCC;
 8000174:	4b58      	ldr	r3, [pc, #352]	; (80002d8 <USART_init+0x16c>)
 8000176:	617b      	str	r3, [r7, #20]
	pRCC->RCC_APB2ENR |= 1<<14;
 8000178:	697b      	ldr	r3, [r7, #20]
 800017a:	699b      	ldr	r3, [r3, #24]
 800017c:	2280      	movs	r2, #128	; 0x80
 800017e:	01d2      	lsls	r2, r2, #7
 8000180:	431a      	orrs	r2, r3
 8000182:	697b      	ldr	r3, [r7, #20]
 8000184:	619a      	str	r2, [r3, #24]

	GPIO_handle *pGPIO_TX,*pGPIO_RX ;

	pGPIO_TX = (GPIO_handle*)(malloc(sizeof(GPIO_handle)));
 8000186:	2010      	movs	r0, #16
 8000188:	f000 fd94 	bl	8000cb4 <malloc>
 800018c:	0003      	movs	r3, r0
 800018e:	613b      	str	r3, [r7, #16]
	memset(pGPIO_TX,0,sizeof(GPIO_handle));
 8000190:	693b      	ldr	r3, [r7, #16]
 8000192:	2210      	movs	r2, #16
 8000194:	2100      	movs	r1, #0
 8000196:	0018      	movs	r0, r3
 8000198:	f000 fd96 	bl	8000cc8 <memset>
	pGPIO_TX->GPIO_addr =  GPIOA;
 800019c:	693b      	ldr	r3, [r7, #16]
 800019e:	2290      	movs	r2, #144	; 0x90
 80001a0:	05d2      	lsls	r2, r2, #23
 80001a2:	601a      	str	r2, [r3, #0]
	pGPIO_TX->GPIO_pin_config.GPIO_pin_number = 9;
 80001a4:	693b      	ldr	r3, [r7, #16]
 80001a6:	2209      	movs	r2, #9
 80001a8:	711a      	strb	r2, [r3, #4]
	pGPIO_TX->GPIO_pin_config.GPIO_pin_mode = GPIO_ALT_FUNCTION;
 80001aa:	693b      	ldr	r3, [r7, #16]
 80001ac:	2202      	movs	r2, #2
 80001ae:	715a      	strb	r2, [r3, #5]
	pGPIO_TX->GPIO_pin_config.GPIO_pin_ALT_function = GPIO_AF1;
 80001b0:	693b      	ldr	r3, [r7, #16]
 80001b2:	2201      	movs	r2, #1
 80001b4:	725a      	strb	r2, [r3, #9]
	GPIO_init(pGPIO_TX);
 80001b6:	693b      	ldr	r3, [r7, #16]
 80001b8:	0018      	movs	r0, r3
 80001ba:	f000 f9e5 	bl	8000588 <GPIO_init>


	pGPIO_RX = (GPIO_handle*)(malloc(sizeof(GPIO_handle)));
 80001be:	2010      	movs	r0, #16
 80001c0:	f000 fd78 	bl	8000cb4 <malloc>
 80001c4:	0003      	movs	r3, r0
 80001c6:	60fb      	str	r3, [r7, #12]
	memset(pGPIO_RX,0,sizeof(GPIO_handle));
 80001c8:	68fb      	ldr	r3, [r7, #12]
 80001ca:	2210      	movs	r2, #16
 80001cc:	2100      	movs	r1, #0
 80001ce:	0018      	movs	r0, r3
 80001d0:	f000 fd7a 	bl	8000cc8 <memset>
	pGPIO_RX->GPIO_addr  =  GPIOA;
 80001d4:	68fb      	ldr	r3, [r7, #12]
 80001d6:	2290      	movs	r2, #144	; 0x90
 80001d8:	05d2      	lsls	r2, r2, #23
 80001da:	601a      	str	r2, [r3, #0]
	pGPIO_RX->GPIO_pin_config.GPIO_pin_number = 10;
 80001dc:	68fb      	ldr	r3, [r7, #12]
 80001de:	220a      	movs	r2, #10
 80001e0:	711a      	strb	r2, [r3, #4]
	pGPIO_RX->GPIO_pin_config.GPIO_pin_mode = GPIO_ALT_FUNCTION;
 80001e2:	68fb      	ldr	r3, [r7, #12]
 80001e4:	2202      	movs	r2, #2
 80001e6:	715a      	strb	r2, [r3, #5]
	pGPIO_RX->GPIO_pin_config.GPIO_pin_ALT_function = GPIO_AF1;
 80001e8:	68fb      	ldr	r3, [r7, #12]
 80001ea:	2201      	movs	r2, #1
 80001ec:	725a      	strb	r2, [r3, #9]

	GPIO_init(pGPIO_RX);
 80001ee:	68fb      	ldr	r3, [r7, #12]
 80001f0:	0018      	movs	r0, r3
 80001f2:	f000 f9c9 	bl	8000588 <GPIO_init>

	//disable USART
	pUSART->base_addr->USART_CR1 &= ~(1<<0);
 80001f6:	687b      	ldr	r3, [r7, #4]
 80001f8:	681b      	ldr	r3, [r3, #0]
 80001fa:	681a      	ldr	r2, [r3, #0]
 80001fc:	687b      	ldr	r3, [r7, #4]
 80001fe:	681b      	ldr	r3, [r3, #0]
 8000200:	2101      	movs	r1, #1
 8000202:	438a      	bics	r2, r1
 8000204:	601a      	str	r2, [r3, #0]

	//word length M[28:12]
	pUSART->base_addr->USART_CR1 &= ~(1<<12 | 1<<28);
 8000206:	687b      	ldr	r3, [r7, #4]
 8000208:	681b      	ldr	r3, [r3, #0]
 800020a:	681a      	ldr	r2, [r3, #0]
 800020c:	687b      	ldr	r3, [r7, #4]
 800020e:	681b      	ldr	r3, [r3, #0]
 8000210:	4932      	ldr	r1, [pc, #200]	; (80002dc <USART_init+0x170>)
 8000212:	400a      	ands	r2, r1
 8000214:	601a      	str	r2, [r3, #0]
	pUSART->base_addr->USART_CR1 |= pUSART->config.USART_word_len<<12;
 8000216:	687b      	ldr	r3, [r7, #4]
 8000218:	681b      	ldr	r3, [r3, #0]
 800021a:	681a      	ldr	r2, [r3, #0]
 800021c:	687b      	ldr	r3, [r7, #4]
 800021e:	7b9b      	ldrb	r3, [r3, #14]
 8000220:	031b      	lsls	r3, r3, #12
 8000222:	0019      	movs	r1, r3
 8000224:	687b      	ldr	r3, [r7, #4]
 8000226:	681b      	ldr	r3, [r3, #0]
 8000228:	430a      	orrs	r2, r1
 800022a:	601a      	str	r2, [r3, #0]


	//parity bit
	pUSART->base_addr->USART_CR1 &= ~(1<<10);
 800022c:	687b      	ldr	r3, [r7, #4]
 800022e:	681b      	ldr	r3, [r3, #0]
 8000230:	681a      	ldr	r2, [r3, #0]
 8000232:	687b      	ldr	r3, [r7, #4]
 8000234:	681b      	ldr	r3, [r3, #0]
 8000236:	492a      	ldr	r1, [pc, #168]	; (80002e0 <USART_init+0x174>)
 8000238:	400a      	ands	r2, r1
 800023a:	601a      	str	r2, [r3, #0]
	pUSART->base_addr->USART_CR1 |= pUSART->config.USART_parity<<10;
 800023c:	687b      	ldr	r3, [r7, #4]
 800023e:	681b      	ldr	r3, [r3, #0]
 8000240:	681a      	ldr	r2, [r3, #0]
 8000242:	687b      	ldr	r3, [r7, #4]
 8000244:	7b5b      	ldrb	r3, [r3, #13]
 8000246:	029b      	lsls	r3, r3, #10
 8000248:	0019      	movs	r1, r3
 800024a:	687b      	ldr	r3, [r7, #4]
 800024c:	681b      	ldr	r3, [r3, #0]
 800024e:	430a      	orrs	r2, r1
 8000250:	601a      	str	r2, [r3, #0]


	//stop bit
	pUSART->base_addr->USART_CR2 &= ~(1<<13 | 1<<12);
 8000252:	687b      	ldr	r3, [r7, #4]
 8000254:	681b      	ldr	r3, [r3, #0]
 8000256:	685a      	ldr	r2, [r3, #4]
 8000258:	687b      	ldr	r3, [r7, #4]
 800025a:	681b      	ldr	r3, [r3, #0]
 800025c:	4921      	ldr	r1, [pc, #132]	; (80002e4 <USART_init+0x178>)
 800025e:	400a      	ands	r2, r1
 8000260:	605a      	str	r2, [r3, #4]
	pUSART->base_addr->USART_CR2 |= pUSART->config.USART_stop<<12;
 8000262:	687b      	ldr	r3, [r7, #4]
 8000264:	681b      	ldr	r3, [r3, #0]
 8000266:	685a      	ldr	r2, [r3, #4]
 8000268:	687b      	ldr	r3, [r7, #4]
 800026a:	7b1b      	ldrb	r3, [r3, #12]
 800026c:	031b      	lsls	r3, r3, #12
 800026e:	0019      	movs	r1, r3
 8000270:	687b      	ldr	r3, [r7, #4]
 8000272:	681b      	ldr	r3, [r3, #0]
 8000274:	430a      	orrs	r2, r1
 8000276:	605a      	str	r2, [r3, #4]

	//over sampling
	pUSART->base_addr->USART_CR1 &= ~(1<<15);
 8000278:	687b      	ldr	r3, [r7, #4]
 800027a:	681b      	ldr	r3, [r3, #0]
 800027c:	681a      	ldr	r2, [r3, #0]
 800027e:	687b      	ldr	r3, [r7, #4]
 8000280:	681b      	ldr	r3, [r3, #0]
 8000282:	4919      	ldr	r1, [pc, #100]	; (80002e8 <USART_init+0x17c>)
 8000284:	400a      	ands	r2, r1
 8000286:	601a      	str	r2, [r3, #0]
	pUSART->base_addr->USART_CR1 |= pUSART->config.USART_oversampling<<15;
 8000288:	687b      	ldr	r3, [r7, #4]
 800028a:	681b      	ldr	r3, [r3, #0]
 800028c:	681a      	ldr	r2, [r3, #0]
 800028e:	687b      	ldr	r3, [r7, #4]
 8000290:	7bdb      	ldrb	r3, [r3, #15]
 8000292:	03db      	lsls	r3, r3, #15
 8000294:	0019      	movs	r1, r3
 8000296:	687b      	ldr	r3, [r7, #4]
 8000298:	681b      	ldr	r3, [r3, #0]
 800029a:	430a      	orrs	r2, r1
 800029c:	601a      	str	r2, [r3, #0]

	//baud rate
	pUSART->base_addr->USART_BRR = (uint16_t)pUSART->config.USART_baudrate;
 800029e:	687b      	ldr	r3, [r7, #4]
 80002a0:	689b      	ldr	r3, [r3, #8]
 80002a2:	b29a      	uxth	r2, r3
 80002a4:	687b      	ldr	r3, [r7, #4]
 80002a6:	681b      	ldr	r3, [r3, #0]
 80002a8:	60da      	str	r2, [r3, #12]

	//enable USART
	pUSART->base_addr->USART_CR1 |= 1<<0;
 80002aa:	687b      	ldr	r3, [r7, #4]
 80002ac:	681b      	ldr	r3, [r3, #0]
 80002ae:	681a      	ldr	r2, [r3, #0]
 80002b0:	687b      	ldr	r3, [r7, #4]
 80002b2:	681b      	ldr	r3, [r3, #0]
 80002b4:	2101      	movs	r1, #1
 80002b6:	430a      	orrs	r2, r1
 80002b8:	601a      	str	r2, [r3, #0]

	//USART mode
	pUSART->base_addr->USART_CR1 |= pUSART->config.USART_mode;
 80002ba:	687b      	ldr	r3, [r7, #4]
 80002bc:	681b      	ldr	r3, [r3, #0]
 80002be:	681a      	ldr	r2, [r3, #0]
 80002c0:	687b      	ldr	r3, [r7, #4]
 80002c2:	791b      	ldrb	r3, [r3, #4]
 80002c4:	0019      	movs	r1, r3
 80002c6:	687b      	ldr	r3, [r7, #4]
 80002c8:	681b      	ldr	r3, [r3, #0]
 80002ca:	430a      	orrs	r2, r1
 80002cc:	601a      	str	r2, [r3, #0]




}
 80002ce:	46c0      	nop			; (mov r8, r8)
 80002d0:	46bd      	mov	sp, r7
 80002d2:	b006      	add	sp, #24
 80002d4:	bd80      	pop	{r7, pc}
 80002d6:	46c0      	nop			; (mov r8, r8)
 80002d8:	40021000 	.word	0x40021000
 80002dc:	efffefff 	.word	0xefffefff
 80002e0:	fffffbff 	.word	0xfffffbff
 80002e4:	ffffcfff 	.word	0xffffcfff
 80002e8:	ffff7fff 	.word	0xffff7fff

080002ec <USART_send>:

void USART_send(char *msg, USART_handle *pUSART)
{
 80002ec:	b580      	push	{r7, lr}
 80002ee:	b082      	sub	sp, #8
 80002f0:	af00      	add	r7, sp, #0
 80002f2:	6078      	str	r0, [r7, #4]
 80002f4:	6039      	str	r1, [r7, #0]

	while(*msg)
 80002f6:	e01c      	b.n	8000332 <USART_send+0x46>
	{
		if(pUSART->base_addr->USART_ISR & (1<<7))
 80002f8:	683b      	ldr	r3, [r7, #0]
 80002fa:	681b      	ldr	r3, [r3, #0]
 80002fc:	69db      	ldr	r3, [r3, #28]
 80002fe:	2280      	movs	r2, #128	; 0x80
 8000300:	4013      	ands	r3, r2
 8000302:	d007      	beq.n	8000314 <USART_send+0x28>
		{
			pUSART->base_addr->USART_TDR = *msg;
 8000304:	687b      	ldr	r3, [r7, #4]
 8000306:	781a      	ldrb	r2, [r3, #0]
 8000308:	683b      	ldr	r3, [r7, #0]
 800030a:	681b      	ldr	r3, [r3, #0]
 800030c:	629a      	str	r2, [r3, #40]	; 0x28
			msg++;
 800030e:	687b      	ldr	r3, [r7, #4]
 8000310:	3301      	adds	r3, #1
 8000312:	607b      	str	r3, [r7, #4]
		}

		while(!(pUSART->base_addr->USART_ISR & (1<<6)));
 8000314:	46c0      	nop			; (mov r8, r8)
 8000316:	683b      	ldr	r3, [r7, #0]
 8000318:	681b      	ldr	r3, [r3, #0]
 800031a:	69db      	ldr	r3, [r3, #28]
 800031c:	2240      	movs	r2, #64	; 0x40
 800031e:	4013      	ands	r3, r2
 8000320:	d0f9      	beq.n	8000316 <USART_send+0x2a>
		pUSART->base_addr->USART_ICR |= 1<<6;
 8000322:	683b      	ldr	r3, [r7, #0]
 8000324:	681b      	ldr	r3, [r3, #0]
 8000326:	6a1a      	ldr	r2, [r3, #32]
 8000328:	683b      	ldr	r3, [r7, #0]
 800032a:	681b      	ldr	r3, [r3, #0]
 800032c:	2140      	movs	r1, #64	; 0x40
 800032e:	430a      	orrs	r2, r1
 8000330:	621a      	str	r2, [r3, #32]
	while(*msg)
 8000332:	687b      	ldr	r3, [r7, #4]
 8000334:	781b      	ldrb	r3, [r3, #0]
 8000336:	2b00      	cmp	r3, #0
 8000338:	d1de      	bne.n	80002f8 <USART_send+0xc>

	}
}
 800033a:	46c0      	nop			; (mov r8, r8)
 800033c:	46bd      	mov	sp, r7
 800033e:	b002      	add	sp, #8
 8000340:	bd80      	pop	{r7, pc}
	...

08000344 <USART_IRQ_config>:

void USART_IRQ_config(USART_handle *pUSART)
{
 8000344:	b580      	push	{r7, lr}
 8000346:	b082      	sub	sp, #8
 8000348:	af00      	add	r7, sp, #0
 800034a:	6078      	str	r0, [r7, #4]
	//enable RXNEIE
	pUSART->base_addr->USART_CR1 |= 1<<5;
 800034c:	687b      	ldr	r3, [r7, #4]
 800034e:	681b      	ldr	r3, [r3, #0]
 8000350:	681a      	ldr	r2, [r3, #0]
 8000352:	687b      	ldr	r3, [r7, #4]
 8000354:	681b      	ldr	r3, [r3, #0]
 8000356:	2120      	movs	r1, #32
 8000358:	430a      	orrs	r2, r1
 800035a:	601a      	str	r2, [r3, #0]

	//enable USART interrupt line
	*(NVIC_ISER) |= 1<<pUSART->config.USART_IRQ_number;
 800035c:	4b07      	ldr	r3, [pc, #28]	; (800037c <USART_IRQ_config+0x38>)
 800035e:	681a      	ldr	r2, [r3, #0]
 8000360:	687b      	ldr	r3, [r7, #4]
 8000362:	7c5b      	ldrb	r3, [r3, #17]
 8000364:	0019      	movs	r1, r3
 8000366:	2301      	movs	r3, #1
 8000368:	408b      	lsls	r3, r1
 800036a:	0019      	movs	r1, r3
 800036c:	4b03      	ldr	r3, [pc, #12]	; (800037c <USART_IRQ_config+0x38>)
 800036e:	430a      	orrs	r2, r1
 8000370:	601a      	str	r2, [r3, #0]

}
 8000372:	46c0      	nop			; (mov r8, r8)
 8000374:	46bd      	mov	sp, r7
 8000376:	b002      	add	sp, #8
 8000378:	bd80      	pop	{r7, pc}
 800037a:	46c0      	nop			; (mov r8, r8)
 800037c:	e000e100 	.word	0xe000e100

08000380 <PLL_clk>:

#include "clock_api.h"


void PLL_clk(uint8_t multiplier_value)
{
 8000380:	b580      	push	{r7, lr}
 8000382:	b084      	sub	sp, #16
 8000384:	af00      	add	r7, sp, #0
 8000386:	0002      	movs	r2, r0
 8000388:	1dfb      	adds	r3, r7, #7
 800038a:	701a      	strb	r2, [r3, #0]
	RCC_reg *pRCC = RCC;
 800038c:	4b23      	ldr	r3, [pc, #140]	; (800041c <PLL_clk+0x9c>)
 800038e:	60fb      	str	r3, [r7, #12]

	 /*use HSI */
	pRCC->RCC_CR |= 1<<0;
 8000390:	68fb      	ldr	r3, [r7, #12]
 8000392:	681b      	ldr	r3, [r3, #0]
 8000394:	2201      	movs	r2, #1
 8000396:	431a      	orrs	r2, r3
 8000398:	68fb      	ldr	r3, [r7, #12]
 800039a:	601a      	str	r2, [r3, #0]


	  /*wait for HSI switched  */
	  while( !(pRCC->RCC_CR & 1<<1) ) ;
 800039c:	46c0      	nop			; (mov r8, r8)
 800039e:	68fb      	ldr	r3, [r7, #12]
 80003a0:	681b      	ldr	r3, [r3, #0]
 80003a2:	2202      	movs	r2, #2
 80003a4:	4013      	ands	r3, r2
 80003a6:	d0fa      	beq.n	800039e <PLL_clk+0x1e>


	  /*disable PLL*/
	  pRCC->RCC_CR &= ~(1<<24);
 80003a8:	68fb      	ldr	r3, [r7, #12]
 80003aa:	681b      	ldr	r3, [r3, #0]
 80003ac:	4a1c      	ldr	r2, [pc, #112]	; (8000420 <PLL_clk+0xa0>)
 80003ae:	401a      	ands	r2, r3
 80003b0:	68fb      	ldr	r3, [r7, #12]
 80003b2:	601a      	str	r2, [r3, #0]


	  /*set PLL muiltiplier  */
	  pRCC->RCC_CFGR &= ~(0xF<<18);
 80003b4:	68fb      	ldr	r3, [r7, #12]
 80003b6:	685b      	ldr	r3, [r3, #4]
 80003b8:	4a1a      	ldr	r2, [pc, #104]	; (8000424 <PLL_clk+0xa4>)
 80003ba:	401a      	ands	r2, r3
 80003bc:	68fb      	ldr	r3, [r7, #12]
 80003be:	605a      	str	r2, [r3, #4]
	  pRCC->RCC_CFGR |= multiplier_value<<18;
 80003c0:	68fb      	ldr	r3, [r7, #12]
 80003c2:	685b      	ldr	r3, [r3, #4]
 80003c4:	1dfa      	adds	r2, r7, #7
 80003c6:	7812      	ldrb	r2, [r2, #0]
 80003c8:	0492      	lsls	r2, r2, #18
 80003ca:	431a      	orrs	r2, r3
 80003cc:	68fb      	ldr	r3, [r7, #12]
 80003ce:	605a      	str	r2, [r3, #4]

	  /*enable PLL*/
	  pRCC->RCC_CR |= 1<<24;
 80003d0:	68fb      	ldr	r3, [r7, #12]
 80003d2:	681b      	ldr	r3, [r3, #0]
 80003d4:	2280      	movs	r2, #128	; 0x80
 80003d6:	0452      	lsls	r2, r2, #17
 80003d8:	431a      	orrs	r2, r3
 80003da:	68fb      	ldr	r3, [r7, #12]
 80003dc:	601a      	str	r2, [r3, #0]

	  /*wait PLL flag set*/
	  while(!(pRCC->RCC_CR & 1<<25));
 80003de:	46c0      	nop			; (mov r8, r8)
 80003e0:	68fb      	ldr	r3, [r7, #12]
 80003e2:	681a      	ldr	r2, [r3, #0]
 80003e4:	2380      	movs	r3, #128	; 0x80
 80003e6:	049b      	lsls	r3, r3, #18
 80003e8:	4013      	ands	r3, r2
 80003ea:	d0f9      	beq.n	80003e0 <PLL_clk+0x60>

	  /*use PLL as system clock*/
	  pRCC->RCC_CFGR &= ~(3<<0);
 80003ec:	68fb      	ldr	r3, [r7, #12]
 80003ee:	685b      	ldr	r3, [r3, #4]
 80003f0:	2203      	movs	r2, #3
 80003f2:	4393      	bics	r3, r2
 80003f4:	001a      	movs	r2, r3
 80003f6:	68fb      	ldr	r3, [r7, #12]
 80003f8:	605a      	str	r2, [r3, #4]
	  pRCC->RCC_CFGR |= 1<<1;
 80003fa:	68fb      	ldr	r3, [r7, #12]
 80003fc:	685b      	ldr	r3, [r3, #4]
 80003fe:	2202      	movs	r2, #2
 8000400:	431a      	orrs	r2, r3
 8000402:	68fb      	ldr	r3, [r7, #12]
 8000404:	605a      	str	r2, [r3, #4]

	  /*wait*/
	  while((pRCC->RCC_CFGR & 3<<2) != (2<<2));
 8000406:	46c0      	nop			; (mov r8, r8)
 8000408:	68fb      	ldr	r3, [r7, #12]
 800040a:	685b      	ldr	r3, [r3, #4]
 800040c:	220c      	movs	r2, #12
 800040e:	4013      	ands	r3, r2
 8000410:	2b08      	cmp	r3, #8
 8000412:	d1f9      	bne.n	8000408 <PLL_clk+0x88>


}
 8000414:	46c0      	nop			; (mov r8, r8)
 8000416:	46bd      	mov	sp, r7
 8000418:	b004      	add	sp, #16
 800041a:	bd80      	pop	{r7, pc}
 800041c:	40021000 	.word	0x40021000
 8000420:	feffffff 	.word	0xfeffffff
 8000424:	ffc3ffff 	.word	0xffc3ffff

08000428 <GPIO_clk_control>:
#include"gpio_api.h"


//enable or disable clock
void GPIO_clk_control(GPIO_handle *pGPIO, uint8_t mode)
{
 8000428:	b580      	push	{r7, lr}
 800042a:	b084      	sub	sp, #16
 800042c:	af00      	add	r7, sp, #0
 800042e:	6078      	str	r0, [r7, #4]
 8000430:	000a      	movs	r2, r1
 8000432:	1cfb      	adds	r3, r7, #3
 8000434:	701a      	strb	r2, [r3, #0]
	RCC_reg *pRCC = RCC;
 8000436:	4b4e      	ldr	r3, [pc, #312]	; (8000570 <GPIO_clk_control+0x148>)
 8000438:	60fb      	str	r3, [r7, #12]

	if(mode > 0)
 800043a:	1cfb      	adds	r3, r7, #3
 800043c:	781b      	ldrb	r3, [r3, #0]
 800043e:	2b00      	cmp	r3, #0
 8000440:	d049      	beq.n	80004d6 <GPIO_clk_control+0xae>
	{
		if(pGPIO->GPIO_addr == GPIOA)
 8000442:	687b      	ldr	r3, [r7, #4]
 8000444:	681a      	ldr	r2, [r3, #0]
 8000446:	2390      	movs	r3, #144	; 0x90
 8000448:	05db      	lsls	r3, r3, #23
 800044a:	429a      	cmp	r2, r3
 800044c:	d106      	bne.n	800045c <GPIO_clk_control+0x34>
			pRCC->RCC_AHBENR |= 1<<17;
 800044e:	68fb      	ldr	r3, [r7, #12]
 8000450:	695b      	ldr	r3, [r3, #20]
 8000452:	2280      	movs	r2, #128	; 0x80
 8000454:	0292      	lsls	r2, r2, #10
 8000456:	431a      	orrs	r2, r3
 8000458:	68fb      	ldr	r3, [r7, #12]
 800045a:	615a      	str	r2, [r3, #20]

		if(pGPIO->GPIO_addr  == GPIOB)
 800045c:	687b      	ldr	r3, [r7, #4]
 800045e:	681b      	ldr	r3, [r3, #0]
 8000460:	4a44      	ldr	r2, [pc, #272]	; (8000574 <GPIO_clk_control+0x14c>)
 8000462:	4293      	cmp	r3, r2
 8000464:	d106      	bne.n	8000474 <GPIO_clk_control+0x4c>
					pRCC->RCC_AHBENR |= 1<<18;
 8000466:	68fb      	ldr	r3, [r7, #12]
 8000468:	695b      	ldr	r3, [r3, #20]
 800046a:	2280      	movs	r2, #128	; 0x80
 800046c:	02d2      	lsls	r2, r2, #11
 800046e:	431a      	orrs	r2, r3
 8000470:	68fb      	ldr	r3, [r7, #12]
 8000472:	615a      	str	r2, [r3, #20]

		if(pGPIO->GPIO_addr  == GPIOC)
 8000474:	687b      	ldr	r3, [r7, #4]
 8000476:	681b      	ldr	r3, [r3, #0]
 8000478:	4a3f      	ldr	r2, [pc, #252]	; (8000578 <GPIO_clk_control+0x150>)
 800047a:	4293      	cmp	r3, r2
 800047c:	d106      	bne.n	800048c <GPIO_clk_control+0x64>
					pRCC->RCC_AHBENR |= 1<<19;
 800047e:	68fb      	ldr	r3, [r7, #12]
 8000480:	695b      	ldr	r3, [r3, #20]
 8000482:	2280      	movs	r2, #128	; 0x80
 8000484:	0312      	lsls	r2, r2, #12
 8000486:	431a      	orrs	r2, r3
 8000488:	68fb      	ldr	r3, [r7, #12]
 800048a:	615a      	str	r2, [r3, #20]

		if(pGPIO->GPIO_addr  == GPIOD)
 800048c:	687b      	ldr	r3, [r7, #4]
 800048e:	681b      	ldr	r3, [r3, #0]
 8000490:	4a3a      	ldr	r2, [pc, #232]	; (800057c <GPIO_clk_control+0x154>)
 8000492:	4293      	cmp	r3, r2
 8000494:	d106      	bne.n	80004a4 <GPIO_clk_control+0x7c>
					pRCC->RCC_AHBENR |= 1<<20;
 8000496:	68fb      	ldr	r3, [r7, #12]
 8000498:	695b      	ldr	r3, [r3, #20]
 800049a:	2280      	movs	r2, #128	; 0x80
 800049c:	0352      	lsls	r2, r2, #13
 800049e:	431a      	orrs	r2, r3
 80004a0:	68fb      	ldr	r3, [r7, #12]
 80004a2:	615a      	str	r2, [r3, #20]

		if(pGPIO->GPIO_addr  == GPIOE)
 80004a4:	687b      	ldr	r3, [r7, #4]
 80004a6:	681b      	ldr	r3, [r3, #0]
 80004a8:	4a35      	ldr	r2, [pc, #212]	; (8000580 <GPIO_clk_control+0x158>)
 80004aa:	4293      	cmp	r3, r2
 80004ac:	d106      	bne.n	80004bc <GPIO_clk_control+0x94>
					pRCC->RCC_AHBENR |= 1<<21;
 80004ae:	68fb      	ldr	r3, [r7, #12]
 80004b0:	695b      	ldr	r3, [r3, #20]
 80004b2:	2280      	movs	r2, #128	; 0x80
 80004b4:	0392      	lsls	r2, r2, #14
 80004b6:	431a      	orrs	r2, r3
 80004b8:	68fb      	ldr	r3, [r7, #12]
 80004ba:	615a      	str	r2, [r3, #20]

		if(pGPIO->GPIO_addr  == GPIOF)
 80004bc:	687b      	ldr	r3, [r7, #4]
 80004be:	681b      	ldr	r3, [r3, #0]
 80004c0:	4a30      	ldr	r2, [pc, #192]	; (8000584 <GPIO_clk_control+0x15c>)
 80004c2:	4293      	cmp	r3, r2
 80004c4:	d150      	bne.n	8000568 <GPIO_clk_control+0x140>
					pRCC->RCC_AHBENR |= 1<<22;
 80004c6:	68fb      	ldr	r3, [r7, #12]
 80004c8:	695b      	ldr	r3, [r3, #20]
 80004ca:	2280      	movs	r2, #128	; 0x80
 80004cc:	03d2      	lsls	r2, r2, #15
 80004ce:	431a      	orrs	r2, r3
 80004d0:	68fb      	ldr	r3, [r7, #12]
 80004d2:	615a      	str	r2, [r3, #20]
					pRCC->RCC_AHBRSTR |= 1<<21;

		if(pGPIO->GPIO_addr  == GPIOF)
					pRCC->RCC_AHBRSTR |= 1<<22;
	}
}
 80004d4:	e048      	b.n	8000568 <GPIO_clk_control+0x140>
		if(pGPIO->GPIO_addr  == GPIOA)
 80004d6:	687b      	ldr	r3, [r7, #4]
 80004d8:	681a      	ldr	r2, [r3, #0]
 80004da:	2390      	movs	r3, #144	; 0x90
 80004dc:	05db      	lsls	r3, r3, #23
 80004de:	429a      	cmp	r2, r3
 80004e0:	d106      	bne.n	80004f0 <GPIO_clk_control+0xc8>
					pRCC->RCC_AHBRSTR |= 1<<17;
 80004e2:	68fb      	ldr	r3, [r7, #12]
 80004e4:	6a9b      	ldr	r3, [r3, #40]	; 0x28
 80004e6:	2280      	movs	r2, #128	; 0x80
 80004e8:	0292      	lsls	r2, r2, #10
 80004ea:	431a      	orrs	r2, r3
 80004ec:	68fb      	ldr	r3, [r7, #12]
 80004ee:	629a      	str	r2, [r3, #40]	; 0x28
		if(pGPIO->GPIO_addr  == GPIOB)
 80004f0:	687b      	ldr	r3, [r7, #4]
 80004f2:	681b      	ldr	r3, [r3, #0]
 80004f4:	4a1f      	ldr	r2, [pc, #124]	; (8000574 <GPIO_clk_control+0x14c>)
 80004f6:	4293      	cmp	r3, r2
 80004f8:	d106      	bne.n	8000508 <GPIO_clk_control+0xe0>
					pRCC->RCC_AHBRSTR |= 1<<18;
 80004fa:	68fb      	ldr	r3, [r7, #12]
 80004fc:	6a9b      	ldr	r3, [r3, #40]	; 0x28
 80004fe:	2280      	movs	r2, #128	; 0x80
 8000500:	02d2      	lsls	r2, r2, #11
 8000502:	431a      	orrs	r2, r3
 8000504:	68fb      	ldr	r3, [r7, #12]
 8000506:	629a      	str	r2, [r3, #40]	; 0x28
		if(pGPIO->GPIO_addr  == GPIOC)
 8000508:	687b      	ldr	r3, [r7, #4]
 800050a:	681b      	ldr	r3, [r3, #0]
 800050c:	4a1a      	ldr	r2, [pc, #104]	; (8000578 <GPIO_clk_control+0x150>)
 800050e:	4293      	cmp	r3, r2
 8000510:	d106      	bne.n	8000520 <GPIO_clk_control+0xf8>
					pRCC->RCC_AHBRSTR |= 1<<19;
 8000512:	68fb      	ldr	r3, [r7, #12]
 8000514:	6a9b      	ldr	r3, [r3, #40]	; 0x28
 8000516:	2280      	movs	r2, #128	; 0x80
 8000518:	0312      	lsls	r2, r2, #12
 800051a:	431a      	orrs	r2, r3
 800051c:	68fb      	ldr	r3, [r7, #12]
 800051e:	629a      	str	r2, [r3, #40]	; 0x28
		if(pGPIO->GPIO_addr  == GPIOD)
 8000520:	687b      	ldr	r3, [r7, #4]
 8000522:	681b      	ldr	r3, [r3, #0]
 8000524:	4a15      	ldr	r2, [pc, #84]	; (800057c <GPIO_clk_control+0x154>)
 8000526:	4293      	cmp	r3, r2
 8000528:	d106      	bne.n	8000538 <GPIO_clk_control+0x110>
					pRCC->RCC_AHBRSTR |= 1<<20;
 800052a:	68fb      	ldr	r3, [r7, #12]
 800052c:	6a9b      	ldr	r3, [r3, #40]	; 0x28
 800052e:	2280      	movs	r2, #128	; 0x80
 8000530:	0352      	lsls	r2, r2, #13
 8000532:	431a      	orrs	r2, r3
 8000534:	68fb      	ldr	r3, [r7, #12]
 8000536:	629a      	str	r2, [r3, #40]	; 0x28
		if(pGPIO->GPIO_addr  == GPIOE)
 8000538:	687b      	ldr	r3, [r7, #4]
 800053a:	681b      	ldr	r3, [r3, #0]
 800053c:	4a10      	ldr	r2, [pc, #64]	; (8000580 <GPIO_clk_control+0x158>)
 800053e:	4293      	cmp	r3, r2
 8000540:	d106      	bne.n	8000550 <GPIO_clk_control+0x128>
					pRCC->RCC_AHBRSTR |= 1<<21;
 8000542:	68fb      	ldr	r3, [r7, #12]
 8000544:	6a9b      	ldr	r3, [r3, #40]	; 0x28
 8000546:	2280      	movs	r2, #128	; 0x80
 8000548:	0392      	lsls	r2, r2, #14
 800054a:	431a      	orrs	r2, r3
 800054c:	68fb      	ldr	r3, [r7, #12]
 800054e:	629a      	str	r2, [r3, #40]	; 0x28
		if(pGPIO->GPIO_addr  == GPIOF)
 8000550:	687b      	ldr	r3, [r7, #4]
 8000552:	681b      	ldr	r3, [r3, #0]
 8000554:	4a0b      	ldr	r2, [pc, #44]	; (8000584 <GPIO_clk_control+0x15c>)
 8000556:	4293      	cmp	r3, r2
 8000558:	d106      	bne.n	8000568 <GPIO_clk_control+0x140>
					pRCC->RCC_AHBRSTR |= 1<<22;
 800055a:	68fb      	ldr	r3, [r7, #12]
 800055c:	6a9b      	ldr	r3, [r3, #40]	; 0x28
 800055e:	2280      	movs	r2, #128	; 0x80
 8000560:	03d2      	lsls	r2, r2, #15
 8000562:	431a      	orrs	r2, r3
 8000564:	68fb      	ldr	r3, [r7, #12]
 8000566:	629a      	str	r2, [r3, #40]	; 0x28
}
 8000568:	46c0      	nop			; (mov r8, r8)
 800056a:	46bd      	mov	sp, r7
 800056c:	b004      	add	sp, #16
 800056e:	bd80      	pop	{r7, pc}
 8000570:	40021000 	.word	0x40021000
 8000574:	48000400 	.word	0x48000400
 8000578:	48000800 	.word	0x48000800
 800057c:	48000c00 	.word	0x48000c00
 8000580:	48001000 	.word	0x48001000
 8000584:	48001400 	.word	0x48001400

08000588 <GPIO_init>:

//pin init
void GPIO_init(GPIO_handle *pGPIO)
{
 8000588:	b590      	push	{r4, r7, lr}
 800058a:	b085      	sub	sp, #20
 800058c:	af00      	add	r7, sp, #0
 800058e:	6078      	str	r0, [r7, #4]
	GPIO_clk_control(pGPIO, ENABLE);
 8000590:	687b      	ldr	r3, [r7, #4]
 8000592:	2101      	movs	r1, #1
 8000594:	0018      	movs	r0, r3
 8000596:	f7ff ff47 	bl	8000428 <GPIO_clk_control>

	if(pGPIO->GPIO_pin_config.GPIO_pin_mode != GPIO_EXTI)
 800059a:	687b      	ldr	r3, [r7, #4]
 800059c:	795b      	ldrb	r3, [r3, #5]
 800059e:	2b04      	cmp	r3, #4
 80005a0:	d100      	bne.n	80005a4 <GPIO_init+0x1c>
 80005a2:	e099      	b.n	80006d8 <GPIO_init+0x150>
	{
		pGPIO->GPIO_addr->MODER &= ~(0x3<<(pGPIO->GPIO_pin_config.GPIO_pin_number*2));
 80005a4:	687b      	ldr	r3, [r7, #4]
 80005a6:	681b      	ldr	r3, [r3, #0]
 80005a8:	681a      	ldr	r2, [r3, #0]
 80005aa:	687b      	ldr	r3, [r7, #4]
 80005ac:	791b      	ldrb	r3, [r3, #4]
 80005ae:	005b      	lsls	r3, r3, #1
 80005b0:	2103      	movs	r1, #3
 80005b2:	4099      	lsls	r1, r3
 80005b4:	000b      	movs	r3, r1
 80005b6:	43db      	mvns	r3, r3
 80005b8:	0019      	movs	r1, r3
 80005ba:	687b      	ldr	r3, [r7, #4]
 80005bc:	681b      	ldr	r3, [r3, #0]
 80005be:	400a      	ands	r2, r1
 80005c0:	601a      	str	r2, [r3, #0]
		pGPIO->GPIO_addr->MODER |= (pGPIO->GPIO_pin_config.GPIO_pin_mode)<<(pGPIO->GPIO_pin_config.GPIO_pin_number * 2 );
 80005c2:	687b      	ldr	r3, [r7, #4]
 80005c4:	681b      	ldr	r3, [r3, #0]
 80005c6:	681a      	ldr	r2, [r3, #0]
 80005c8:	687b      	ldr	r3, [r7, #4]
 80005ca:	795b      	ldrb	r3, [r3, #5]
 80005cc:	0019      	movs	r1, r3
 80005ce:	687b      	ldr	r3, [r7, #4]
 80005d0:	791b      	ldrb	r3, [r3, #4]
 80005d2:	005b      	lsls	r3, r3, #1
 80005d4:	4099      	lsls	r1, r3
 80005d6:	000b      	movs	r3, r1
 80005d8:	0019      	movs	r1, r3
 80005da:	687b      	ldr	r3, [r7, #4]
 80005dc:	681b      	ldr	r3, [r3, #0]
 80005de:	430a      	orrs	r2, r1
 80005e0:	601a      	str	r2, [r3, #0]

		if(pGPIO->GPIO_pin_config.GPIO_pin_mode == GPIO_OUTPUT)
 80005e2:	687b      	ldr	r3, [r7, #4]
 80005e4:	795b      	ldrb	r3, [r3, #5]
 80005e6:	2b01      	cmp	r3, #1
 80005e8:	d135      	bne.n	8000656 <GPIO_init+0xce>
		{
			pGPIO->GPIO_addr->OSPEEDR &= ~(GPIO_SPEED_HIGH<<(pGPIO->GPIO_pin_config.GPIO_pin_number*2));
 80005ea:	687b      	ldr	r3, [r7, #4]
 80005ec:	681b      	ldr	r3, [r3, #0]
 80005ee:	689a      	ldr	r2, [r3, #8]
 80005f0:	687b      	ldr	r3, [r7, #4]
 80005f2:	791b      	ldrb	r3, [r3, #4]
 80005f4:	005b      	lsls	r3, r3, #1
 80005f6:	2103      	movs	r1, #3
 80005f8:	4099      	lsls	r1, r3
 80005fa:	000b      	movs	r3, r1
 80005fc:	43db      	mvns	r3, r3
 80005fe:	0019      	movs	r1, r3
 8000600:	687b      	ldr	r3, [r7, #4]
 8000602:	681b      	ldr	r3, [r3, #0]
 8000604:	400a      	ands	r2, r1
 8000606:	609a      	str	r2, [r3, #8]
			pGPIO->GPIO_addr->OSPEEDR |= GPIO_SPEED_HIGH<<(pGPIO->GPIO_pin_config.GPIO_pin_number*2);
 8000608:	687b      	ldr	r3, [r7, #4]
 800060a:	681b      	ldr	r3, [r3, #0]
 800060c:	689a      	ldr	r2, [r3, #8]
 800060e:	687b      	ldr	r3, [r7, #4]
 8000610:	791b      	ldrb	r3, [r3, #4]
 8000612:	005b      	lsls	r3, r3, #1
 8000614:	2103      	movs	r1, #3
 8000616:	4099      	lsls	r1, r3
 8000618:	000b      	movs	r3, r1
 800061a:	0019      	movs	r1, r3
 800061c:	687b      	ldr	r3, [r7, #4]
 800061e:	681b      	ldr	r3, [r3, #0]
 8000620:	430a      	orrs	r2, r1
 8000622:	609a      	str	r2, [r3, #8]

			pGPIO->GPIO_addr->OTYPE &= ~(GPIO_OP_TYPE_PP<<(pGPIO->GPIO_pin_config.GPIO_pin_number));
 8000624:	687b      	ldr	r3, [r7, #4]
 8000626:	681a      	ldr	r2, [r3, #0]
 8000628:	687b      	ldr	r3, [r7, #4]
 800062a:	681b      	ldr	r3, [r3, #0]
 800062c:	6852      	ldr	r2, [r2, #4]
 800062e:	605a      	str	r2, [r3, #4]
			pGPIO->GPIO_addr->OTYPE |= GPIO_OP_TYPE_PP<<(pGPIO->GPIO_pin_config.GPIO_pin_number*2);
 8000630:	687b      	ldr	r3, [r7, #4]
 8000632:	681a      	ldr	r2, [r3, #0]
 8000634:	687b      	ldr	r3, [r7, #4]
 8000636:	681b      	ldr	r3, [r3, #0]
 8000638:	6852      	ldr	r2, [r2, #4]
 800063a:	605a      	str	r2, [r3, #4]

			pGPIO->GPIO_addr->PUPDR &= ~(GPIO_NO_PUPD<<(pGPIO->GPIO_pin_config.GPIO_pin_number));
 800063c:	687b      	ldr	r3, [r7, #4]
 800063e:	681a      	ldr	r2, [r3, #0]
 8000640:	687b      	ldr	r3, [r7, #4]
 8000642:	681b      	ldr	r3, [r3, #0]
 8000644:	68d2      	ldr	r2, [r2, #12]
 8000646:	60da      	str	r2, [r3, #12]
			pGPIO->GPIO_addr->PUPDR |= GPIO_NO_PUPD<<(pGPIO->GPIO_pin_config.GPIO_pin_number*2);
 8000648:	687b      	ldr	r3, [r7, #4]
 800064a:	681a      	ldr	r2, [r3, #0]
 800064c:	687b      	ldr	r3, [r7, #4]
 800064e:	681b      	ldr	r3, [r3, #0]
 8000650:	68d2      	ldr	r2, [r2, #12]
 8000652:	60da      	str	r2, [r3, #12]
		}

	}


}
 8000654:	e163      	b.n	800091e <GPIO_init+0x396>
		else if(pGPIO->GPIO_pin_config.GPIO_pin_mode == GPIO_ALT_FUNCTION)
 8000656:	687b      	ldr	r3, [r7, #4]
 8000658:	795b      	ldrb	r3, [r3, #5]
 800065a:	2b02      	cmp	r3, #2
 800065c:	d000      	beq.n	8000660 <GPIO_init+0xd8>
 800065e:	e15e      	b.n	800091e <GPIO_init+0x396>
			(pGPIO->GPIO_addr->AFR[pGPIO->GPIO_pin_config.GPIO_pin_number/8]) &= ~(0xF<<(pGPIO->GPIO_pin_config.GPIO_pin_number%8*4));
 8000660:	687b      	ldr	r3, [r7, #4]
 8000662:	681b      	ldr	r3, [r3, #0]
 8000664:	687a      	ldr	r2, [r7, #4]
 8000666:	7912      	ldrb	r2, [r2, #4]
 8000668:	08d2      	lsrs	r2, r2, #3
 800066a:	b2d0      	uxtb	r0, r2
 800066c:	0002      	movs	r2, r0
 800066e:	3208      	adds	r2, #8
 8000670:	0092      	lsls	r2, r2, #2
 8000672:	58d2      	ldr	r2, [r2, r3]
 8000674:	687b      	ldr	r3, [r7, #4]
 8000676:	791b      	ldrb	r3, [r3, #4]
 8000678:	0019      	movs	r1, r3
 800067a:	2307      	movs	r3, #7
 800067c:	400b      	ands	r3, r1
 800067e:	009b      	lsls	r3, r3, #2
 8000680:	210f      	movs	r1, #15
 8000682:	4099      	lsls	r1, r3
 8000684:	000b      	movs	r3, r1
 8000686:	43db      	mvns	r3, r3
 8000688:	0019      	movs	r1, r3
 800068a:	687b      	ldr	r3, [r7, #4]
 800068c:	681b      	ldr	r3, [r3, #0]
 800068e:	4011      	ands	r1, r2
 8000690:	0002      	movs	r2, r0
 8000692:	3208      	adds	r2, #8
 8000694:	0092      	lsls	r2, r2, #2
 8000696:	50d1      	str	r1, [r2, r3]
			(pGPIO->GPIO_addr->AFR[pGPIO->GPIO_pin_config.GPIO_pin_number/8]) |= (pGPIO->GPIO_pin_config.GPIO_pin_ALT_function)<<(pGPIO->GPIO_pin_config.GPIO_pin_number%8*4);
 8000698:	687b      	ldr	r3, [r7, #4]
 800069a:	681b      	ldr	r3, [r3, #0]
 800069c:	687a      	ldr	r2, [r7, #4]
 800069e:	7912      	ldrb	r2, [r2, #4]
 80006a0:	08d2      	lsrs	r2, r2, #3
 80006a2:	b2d1      	uxtb	r1, r2
 80006a4:	000a      	movs	r2, r1
 80006a6:	3208      	adds	r2, #8
 80006a8:	0092      	lsls	r2, r2, #2
 80006aa:	58d2      	ldr	r2, [r2, r3]
 80006ac:	687b      	ldr	r3, [r7, #4]
 80006ae:	7a5b      	ldrb	r3, [r3, #9]
 80006b0:	0018      	movs	r0, r3
 80006b2:	687b      	ldr	r3, [r7, #4]
 80006b4:	791b      	ldrb	r3, [r3, #4]
 80006b6:	001c      	movs	r4, r3
 80006b8:	2307      	movs	r3, #7
 80006ba:	4023      	ands	r3, r4
 80006bc:	009b      	lsls	r3, r3, #2
 80006be:	4098      	lsls	r0, r3
 80006c0:	0003      	movs	r3, r0
 80006c2:	001c      	movs	r4, r3
 80006c4:	687b      	ldr	r3, [r7, #4]
 80006c6:	681b      	ldr	r3, [r3, #0]
 80006c8:	0008      	movs	r0, r1
 80006ca:	4322      	orrs	r2, r4
 80006cc:	0011      	movs	r1, r2
 80006ce:	0002      	movs	r2, r0
 80006d0:	3208      	adds	r2, #8
 80006d2:	0092      	lsls	r2, r2, #2
 80006d4:	50d1      	str	r1, [r2, r3]
}
 80006d6:	e122      	b.n	800091e <GPIO_init+0x396>
		EXTI_reg *pEXTI = EXTI;
 80006d8:	4b93      	ldr	r3, [pc, #588]	; (8000928 <GPIO_init+0x3a0>)
 80006da:	60fb      	str	r3, [r7, #12]
		SYSCFG_reg *pSYSCFG = SYSCFG;
 80006dc:	4b93      	ldr	r3, [pc, #588]	; (800092c <GPIO_init+0x3a4>)
 80006de:	60bb      	str	r3, [r7, #8]
		pEXTI->EXTI_IMR |= 1<<(pGPIO->GPIO_pin_config.GPIO_pin_number);
 80006e0:	68fb      	ldr	r3, [r7, #12]
 80006e2:	681b      	ldr	r3, [r3, #0]
 80006e4:	687a      	ldr	r2, [r7, #4]
 80006e6:	7912      	ldrb	r2, [r2, #4]
 80006e8:	0011      	movs	r1, r2
 80006ea:	2201      	movs	r2, #1
 80006ec:	408a      	lsls	r2, r1
 80006ee:	431a      	orrs	r2, r3
 80006f0:	68fb      	ldr	r3, [r7, #12]
 80006f2:	601a      	str	r2, [r3, #0]
		pSYSCFG->SYSCFG_EXTICR[pGPIO->GPIO_pin_config.GPIO_pin_number/4] &= ~(0xF<<(pGPIO->GPIO_pin_config.GPIO_pin_number%4*4));
 80006f4:	687b      	ldr	r3, [r7, #4]
 80006f6:	791b      	ldrb	r3, [r3, #4]
 80006f8:	089b      	lsrs	r3, r3, #2
 80006fa:	b2d8      	uxtb	r0, r3
 80006fc:	0002      	movs	r2, r0
 80006fe:	68bb      	ldr	r3, [r7, #8]
 8000700:	3202      	adds	r2, #2
 8000702:	0092      	lsls	r2, r2, #2
 8000704:	58d3      	ldr	r3, [r2, r3]
 8000706:	687a      	ldr	r2, [r7, #4]
 8000708:	7912      	ldrb	r2, [r2, #4]
 800070a:	0011      	movs	r1, r2
 800070c:	2203      	movs	r2, #3
 800070e:	400a      	ands	r2, r1
 8000710:	0092      	lsls	r2, r2, #2
 8000712:	210f      	movs	r1, #15
 8000714:	4091      	lsls	r1, r2
 8000716:	000a      	movs	r2, r1
 8000718:	43d2      	mvns	r2, r2
 800071a:	0011      	movs	r1, r2
 800071c:	0002      	movs	r2, r0
 800071e:	4019      	ands	r1, r3
 8000720:	68bb      	ldr	r3, [r7, #8]
 8000722:	3202      	adds	r2, #2
 8000724:	0092      	lsls	r2, r2, #2
 8000726:	50d1      	str	r1, [r2, r3]
		if(pGPIO->GPIO_addr == GPIOA)
 8000728:	687b      	ldr	r3, [r7, #4]
 800072a:	681a      	ldr	r2, [r3, #0]
 800072c:	2390      	movs	r3, #144	; 0x90
 800072e:	05db      	lsls	r3, r3, #23
 8000730:	429a      	cmp	r2, r3
 8000732:	d10e      	bne.n	8000752 <GPIO_init+0x1ca>
			pSYSCFG->SYSCFG_EXTICR[pGPIO->GPIO_pin_config.GPIO_pin_number/4] |= 0x0<<(pGPIO->GPIO_pin_config.GPIO_pin_number%4*4);
 8000734:	687b      	ldr	r3, [r7, #4]
 8000736:	791b      	ldrb	r3, [r3, #4]
 8000738:	089b      	lsrs	r3, r3, #2
 800073a:	b2db      	uxtb	r3, r3
 800073c:	001a      	movs	r2, r3
 800073e:	0018      	movs	r0, r3
 8000740:	68bb      	ldr	r3, [r7, #8]
 8000742:	3202      	adds	r2, #2
 8000744:	0092      	lsls	r2, r2, #2
 8000746:	58d1      	ldr	r1, [r2, r3]
 8000748:	68bb      	ldr	r3, [r7, #8]
 800074a:	1c82      	adds	r2, r0, #2
 800074c:	0092      	lsls	r2, r2, #2
 800074e:	50d1      	str	r1, [r2, r3]
 8000750:	e099      	b.n	8000886 <GPIO_init+0x2fe>
		else if(pGPIO->GPIO_addr == GPIOB)
 8000752:	687b      	ldr	r3, [r7, #4]
 8000754:	681b      	ldr	r3, [r3, #0]
 8000756:	4a76      	ldr	r2, [pc, #472]	; (8000930 <GPIO_init+0x3a8>)
 8000758:	4293      	cmp	r3, r2
 800075a:	d119      	bne.n	8000790 <GPIO_init+0x208>
			pSYSCFG->SYSCFG_EXTICR[pGPIO->GPIO_pin_config.GPIO_pin_number/4] |= 0x1<<(pGPIO->GPIO_pin_config.GPIO_pin_number%4*4);
 800075c:	687b      	ldr	r3, [r7, #4]
 800075e:	791b      	ldrb	r3, [r3, #4]
 8000760:	089b      	lsrs	r3, r3, #2
 8000762:	b2d8      	uxtb	r0, r3
 8000764:	0002      	movs	r2, r0
 8000766:	68bb      	ldr	r3, [r7, #8]
 8000768:	3202      	adds	r2, #2
 800076a:	0092      	lsls	r2, r2, #2
 800076c:	58d3      	ldr	r3, [r2, r3]
 800076e:	687a      	ldr	r2, [r7, #4]
 8000770:	7912      	ldrb	r2, [r2, #4]
 8000772:	0011      	movs	r1, r2
 8000774:	2203      	movs	r2, #3
 8000776:	400a      	ands	r2, r1
 8000778:	0092      	lsls	r2, r2, #2
 800077a:	2101      	movs	r1, #1
 800077c:	4091      	lsls	r1, r2
 800077e:	000a      	movs	r2, r1
 8000780:	0011      	movs	r1, r2
 8000782:	0002      	movs	r2, r0
 8000784:	4319      	orrs	r1, r3
 8000786:	68bb      	ldr	r3, [r7, #8]
 8000788:	3202      	adds	r2, #2
 800078a:	0092      	lsls	r2, r2, #2
 800078c:	50d1      	str	r1, [r2, r3]
 800078e:	e07a      	b.n	8000886 <GPIO_init+0x2fe>
		else if(pGPIO->GPIO_addr == GPIOC)
 8000790:	687b      	ldr	r3, [r7, #4]
 8000792:	681b      	ldr	r3, [r3, #0]
 8000794:	4a67      	ldr	r2, [pc, #412]	; (8000934 <GPIO_init+0x3ac>)
 8000796:	4293      	cmp	r3, r2
 8000798:	d119      	bne.n	80007ce <GPIO_init+0x246>
			pSYSCFG->SYSCFG_EXTICR[pGPIO->GPIO_pin_config.GPIO_pin_number/4] |= 0x2<<(pGPIO->GPIO_pin_config.GPIO_pin_number%4*4);
 800079a:	687b      	ldr	r3, [r7, #4]
 800079c:	791b      	ldrb	r3, [r3, #4]
 800079e:	089b      	lsrs	r3, r3, #2
 80007a0:	b2d8      	uxtb	r0, r3
 80007a2:	0002      	movs	r2, r0
 80007a4:	68bb      	ldr	r3, [r7, #8]
 80007a6:	3202      	adds	r2, #2
 80007a8:	0092      	lsls	r2, r2, #2
 80007aa:	58d3      	ldr	r3, [r2, r3]
 80007ac:	687a      	ldr	r2, [r7, #4]
 80007ae:	7912      	ldrb	r2, [r2, #4]
 80007b0:	0011      	movs	r1, r2
 80007b2:	2203      	movs	r2, #3
 80007b4:	400a      	ands	r2, r1
 80007b6:	0092      	lsls	r2, r2, #2
 80007b8:	2102      	movs	r1, #2
 80007ba:	4091      	lsls	r1, r2
 80007bc:	000a      	movs	r2, r1
 80007be:	0011      	movs	r1, r2
 80007c0:	0002      	movs	r2, r0
 80007c2:	4319      	orrs	r1, r3
 80007c4:	68bb      	ldr	r3, [r7, #8]
 80007c6:	3202      	adds	r2, #2
 80007c8:	0092      	lsls	r2, r2, #2
 80007ca:	50d1      	str	r1, [r2, r3]
 80007cc:	e05b      	b.n	8000886 <GPIO_init+0x2fe>
		else if(pGPIO->GPIO_addr == GPIOD)
 80007ce:	687b      	ldr	r3, [r7, #4]
 80007d0:	681b      	ldr	r3, [r3, #0]
 80007d2:	4a59      	ldr	r2, [pc, #356]	; (8000938 <GPIO_init+0x3b0>)
 80007d4:	4293      	cmp	r3, r2
 80007d6:	d119      	bne.n	800080c <GPIO_init+0x284>
			pSYSCFG->SYSCFG_EXTICR[pGPIO->GPIO_pin_config.GPIO_pin_number/4] |= 0x3<<(pGPIO->GPIO_pin_config.GPIO_pin_number%4*4);
 80007d8:	687b      	ldr	r3, [r7, #4]
 80007da:	791b      	ldrb	r3, [r3, #4]
 80007dc:	089b      	lsrs	r3, r3, #2
 80007de:	b2d8      	uxtb	r0, r3
 80007e0:	0002      	movs	r2, r0
 80007e2:	68bb      	ldr	r3, [r7, #8]
 80007e4:	3202      	adds	r2, #2
 80007e6:	0092      	lsls	r2, r2, #2
 80007e8:	58d3      	ldr	r3, [r2, r3]
 80007ea:	687a      	ldr	r2, [r7, #4]
 80007ec:	7912      	ldrb	r2, [r2, #4]
 80007ee:	0011      	movs	r1, r2
 80007f0:	2203      	movs	r2, #3
 80007f2:	400a      	ands	r2, r1
 80007f4:	0092      	lsls	r2, r2, #2
 80007f6:	2103      	movs	r1, #3
 80007f8:	4091      	lsls	r1, r2
 80007fa:	000a      	movs	r2, r1
 80007fc:	0011      	movs	r1, r2
 80007fe:	0002      	movs	r2, r0
 8000800:	4319      	orrs	r1, r3
 8000802:	68bb      	ldr	r3, [r7, #8]
 8000804:	3202      	adds	r2, #2
 8000806:	0092      	lsls	r2, r2, #2
 8000808:	50d1      	str	r1, [r2, r3]
 800080a:	e03c      	b.n	8000886 <GPIO_init+0x2fe>
		else if(pGPIO->GPIO_addr == GPIOE)
 800080c:	687b      	ldr	r3, [r7, #4]
 800080e:	681b      	ldr	r3, [r3, #0]
 8000810:	4a4a      	ldr	r2, [pc, #296]	; (800093c <GPIO_init+0x3b4>)
 8000812:	4293      	cmp	r3, r2
 8000814:	d119      	bne.n	800084a <GPIO_init+0x2c2>
			pSYSCFG->SYSCFG_EXTICR[pGPIO->GPIO_pin_config.GPIO_pin_number/4] |= 0x4<<(pGPIO->GPIO_pin_config.GPIO_pin_number%4*4);
 8000816:	687b      	ldr	r3, [r7, #4]
 8000818:	791b      	ldrb	r3, [r3, #4]
 800081a:	089b      	lsrs	r3, r3, #2
 800081c:	b2d8      	uxtb	r0, r3
 800081e:	0002      	movs	r2, r0
 8000820:	68bb      	ldr	r3, [r7, #8]
 8000822:	3202      	adds	r2, #2
 8000824:	0092      	lsls	r2, r2, #2
 8000826:	58d3      	ldr	r3, [r2, r3]
 8000828:	687a      	ldr	r2, [r7, #4]
 800082a:	7912      	ldrb	r2, [r2, #4]
 800082c:	0011      	movs	r1, r2
 800082e:	2203      	movs	r2, #3
 8000830:	400a      	ands	r2, r1
 8000832:	0092      	lsls	r2, r2, #2
 8000834:	2104      	movs	r1, #4
 8000836:	4091      	lsls	r1, r2
 8000838:	000a      	movs	r2, r1
 800083a:	0011      	movs	r1, r2
 800083c:	0002      	movs	r2, r0
 800083e:	4319      	orrs	r1, r3
 8000840:	68bb      	ldr	r3, [r7, #8]
 8000842:	3202      	adds	r2, #2
 8000844:	0092      	lsls	r2, r2, #2
 8000846:	50d1      	str	r1, [r2, r3]
 8000848:	e01d      	b.n	8000886 <GPIO_init+0x2fe>
		else if(pGPIO->GPIO_addr == GPIOF)
 800084a:	687b      	ldr	r3, [r7, #4]
 800084c:	681b      	ldr	r3, [r3, #0]
 800084e:	4a3c      	ldr	r2, [pc, #240]	; (8000940 <GPIO_init+0x3b8>)
 8000850:	4293      	cmp	r3, r2
 8000852:	d118      	bne.n	8000886 <GPIO_init+0x2fe>
			pSYSCFG->SYSCFG_EXTICR[pGPIO->GPIO_pin_config.GPIO_pin_number/4] |= 0x5<<(pGPIO->GPIO_pin_config.GPIO_pin_number%4*4);
 8000854:	687b      	ldr	r3, [r7, #4]
 8000856:	791b      	ldrb	r3, [r3, #4]
 8000858:	089b      	lsrs	r3, r3, #2
 800085a:	b2d8      	uxtb	r0, r3
 800085c:	0002      	movs	r2, r0
 800085e:	68bb      	ldr	r3, [r7, #8]
 8000860:	3202      	adds	r2, #2
 8000862:	0092      	lsls	r2, r2, #2
 8000864:	58d3      	ldr	r3, [r2, r3]
 8000866:	687a      	ldr	r2, [r7, #4]
 8000868:	7912      	ldrb	r2, [r2, #4]
 800086a:	0011      	movs	r1, r2
 800086c:	2203      	movs	r2, #3
 800086e:	400a      	ands	r2, r1
 8000870:	0092      	lsls	r2, r2, #2
 8000872:	2105      	movs	r1, #5
 8000874:	4091      	lsls	r1, r2
 8000876:	000a      	movs	r2, r1
 8000878:	0011      	movs	r1, r2
 800087a:	0002      	movs	r2, r0
 800087c:	4319      	orrs	r1, r3
 800087e:	68bb      	ldr	r3, [r7, #8]
 8000880:	3202      	adds	r2, #2
 8000882:	0092      	lsls	r2, r2, #2
 8000884:	50d1      	str	r1, [r2, r3]
		if(pGPIO->GPIO_pin_config.GPIO_IRQ_edge == GPIO_IRQ_FT)
 8000886:	687b      	ldr	r3, [r7, #4]
 8000888:	7b5b      	ldrb	r3, [r3, #13]
 800088a:	2b00      	cmp	r3, #0
 800088c:	d115      	bne.n	80008ba <GPIO_init+0x332>
			pEXTI->EXTI_FTSR |= 1<<(pGPIO->GPIO_pin_config.GPIO_pin_number);
 800088e:	68fb      	ldr	r3, [r7, #12]
 8000890:	68db      	ldr	r3, [r3, #12]
 8000892:	687a      	ldr	r2, [r7, #4]
 8000894:	7912      	ldrb	r2, [r2, #4]
 8000896:	0011      	movs	r1, r2
 8000898:	2201      	movs	r2, #1
 800089a:	408a      	lsls	r2, r1
 800089c:	431a      	orrs	r2, r3
 800089e:	68fb      	ldr	r3, [r7, #12]
 80008a0:	60da      	str	r2, [r3, #12]
			pEXTI->EXTI_RTSR &= ~(1<<(pGPIO->GPIO_pin_config.GPIO_pin_number));
 80008a2:	68fb      	ldr	r3, [r7, #12]
 80008a4:	689b      	ldr	r3, [r3, #8]
 80008a6:	687a      	ldr	r2, [r7, #4]
 80008a8:	7912      	ldrb	r2, [r2, #4]
 80008aa:	0011      	movs	r1, r2
 80008ac:	2201      	movs	r2, #1
 80008ae:	408a      	lsls	r2, r1
 80008b0:	43d2      	mvns	r2, r2
 80008b2:	401a      	ands	r2, r3
 80008b4:	68fb      	ldr	r3, [r7, #12]
 80008b6:	609a      	str	r2, [r3, #8]
}
 80008b8:	e031      	b.n	800091e <GPIO_init+0x396>
		else if( pGPIO->GPIO_pin_config.GPIO_IRQ_edge == GPIO_IRQ_RT)
 80008ba:	687b      	ldr	r3, [r7, #4]
 80008bc:	7b5b      	ldrb	r3, [r3, #13]
 80008be:	2b01      	cmp	r3, #1
 80008c0:	d115      	bne.n	80008ee <GPIO_init+0x366>
			pEXTI->EXTI_RTSR |= 1<<(pGPIO->GPIO_pin_config.GPIO_pin_number);
 80008c2:	68fb      	ldr	r3, [r7, #12]
 80008c4:	689b      	ldr	r3, [r3, #8]
 80008c6:	687a      	ldr	r2, [r7, #4]
 80008c8:	7912      	ldrb	r2, [r2, #4]
 80008ca:	0011      	movs	r1, r2
 80008cc:	2201      	movs	r2, #1
 80008ce:	408a      	lsls	r2, r1
 80008d0:	431a      	orrs	r2, r3
 80008d2:	68fb      	ldr	r3, [r7, #12]
 80008d4:	609a      	str	r2, [r3, #8]
			pEXTI->EXTI_FTSR &= ~(1<<(pGPIO->GPIO_pin_config.GPIO_pin_mode));
 80008d6:	68fb      	ldr	r3, [r7, #12]
 80008d8:	68db      	ldr	r3, [r3, #12]
 80008da:	687a      	ldr	r2, [r7, #4]
 80008dc:	7952      	ldrb	r2, [r2, #5]
 80008de:	0011      	movs	r1, r2
 80008e0:	2201      	movs	r2, #1
 80008e2:	408a      	lsls	r2, r1
 80008e4:	43d2      	mvns	r2, r2
 80008e6:	401a      	ands	r2, r3
 80008e8:	68fb      	ldr	r3, [r7, #12]
 80008ea:	60da      	str	r2, [r3, #12]
}
 80008ec:	e017      	b.n	800091e <GPIO_init+0x396>
		else if(pGPIO->GPIO_pin_config.GPIO_IRQ_edge == GPIO_IRQ_BT)
 80008ee:	687b      	ldr	r3, [r7, #4]
 80008f0:	7b5b      	ldrb	r3, [r3, #13]
 80008f2:	2b02      	cmp	r3, #2
 80008f4:	d113      	bne.n	800091e <GPIO_init+0x396>
			pEXTI->EXTI_FTSR |= 1<<(pGPIO->GPIO_pin_config.GPIO_pin_number);
 80008f6:	68fb      	ldr	r3, [r7, #12]
 80008f8:	68db      	ldr	r3, [r3, #12]
 80008fa:	687a      	ldr	r2, [r7, #4]
 80008fc:	7912      	ldrb	r2, [r2, #4]
 80008fe:	0011      	movs	r1, r2
 8000900:	2201      	movs	r2, #1
 8000902:	408a      	lsls	r2, r1
 8000904:	431a      	orrs	r2, r3
 8000906:	68fb      	ldr	r3, [r7, #12]
 8000908:	60da      	str	r2, [r3, #12]
			pEXTI->EXTI_RTSR |= 1<<(pGPIO->GPIO_pin_config.GPIO_pin_number);
 800090a:	68fb      	ldr	r3, [r7, #12]
 800090c:	689b      	ldr	r3, [r3, #8]
 800090e:	687a      	ldr	r2, [r7, #4]
 8000910:	7912      	ldrb	r2, [r2, #4]
 8000912:	0011      	movs	r1, r2
 8000914:	2201      	movs	r2, #1
 8000916:	408a      	lsls	r2, r1
 8000918:	431a      	orrs	r2, r3
 800091a:	68fb      	ldr	r3, [r7, #12]
 800091c:	609a      	str	r2, [r3, #8]
}
 800091e:	46c0      	nop			; (mov r8, r8)
 8000920:	46bd      	mov	sp, r7
 8000922:	b005      	add	sp, #20
 8000924:	bd90      	pop	{r4, r7, pc}
 8000926:	46c0      	nop			; (mov r8, r8)
 8000928:	40010400 	.word	0x40010400
 800092c:	40010000 	.word	0x40010000
 8000930:	48000400 	.word	0x48000400
 8000934:	48000800 	.word	0x48000800
 8000938:	48000c00 	.word	0x48000c00
 800093c:	48001000 	.word	0x48001000
 8000940:	48001400 	.word	0x48001400

08000944 <GPIO_toggle>:
		pGPIO->GPIO_addr->ODR &= ~(1<<pGPIO->GPIO_pin_config.GPIO_pin_number);
	}
}

void GPIO_toggle(GPIO_handle *pGPIO)
{
 8000944:	b580      	push	{r7, lr}
 8000946:	b082      	sub	sp, #8
 8000948:	af00      	add	r7, sp, #0
 800094a:	6078      	str	r0, [r7, #4]
	pGPIO->GPIO_addr->ODR ^= 1<<pGPIO->GPIO_pin_config.GPIO_pin_number;
 800094c:	687b      	ldr	r3, [r7, #4]
 800094e:	681b      	ldr	r3, [r3, #0]
 8000950:	695a      	ldr	r2, [r3, #20]
 8000952:	687b      	ldr	r3, [r7, #4]
 8000954:	791b      	ldrb	r3, [r3, #4]
 8000956:	0019      	movs	r1, r3
 8000958:	2301      	movs	r3, #1
 800095a:	408b      	lsls	r3, r1
 800095c:	0019      	movs	r1, r3
 800095e:	687b      	ldr	r3, [r7, #4]
 8000960:	681b      	ldr	r3, [r3, #0]
 8000962:	404a      	eors	r2, r1
 8000964:	615a      	str	r2, [r3, #20]
}
 8000966:	46c0      	nop			; (mov r8, r8)
 8000968:	46bd      	mov	sp, r7
 800096a:	b002      	add	sp, #8
 800096c:	bd80      	pop	{r7, pc}
	...

08000970 <GPIO_IRQ_config>:

//IRQ configuration
void GPIO_IRQ_config(GPIO_handle *pGPIO_irq)
{
 8000970:	b590      	push	{r4, r7, lr}
 8000972:	b083      	sub	sp, #12
 8000974:	af00      	add	r7, sp, #0
 8000976:	6078      	str	r0, [r7, #4]

	if (pGPIO_irq->GPIO_pin_config.GPIO_IRQ_mode > 0)
 8000978:	687b      	ldr	r3, [r7, #4]
 800097a:	7b1b      	ldrb	r3, [r3, #12]
 800097c:	2b00      	cmp	r3, #0
 800097e:	d045      	beq.n	8000a0c <GPIO_IRQ_config+0x9c>
	{
		//set priority
		*(NVIC_IPR + (pGPIO_irq->GPIO_pin_config.GPIO_IRQ_number / 4)) &= ~(0xFF << (pGPIO_irq->GPIO_pin_config.GPIO_IRQ_number % 4 * 8 + 4));
 8000980:	687b      	ldr	r3, [r7, #4]
 8000982:	7a9b      	ldrb	r3, [r3, #10]
 8000984:	089b      	lsrs	r3, r3, #2
 8000986:	b2d8      	uxtb	r0, r3
 8000988:	0003      	movs	r3, r0
 800098a:	009b      	lsls	r3, r3, #2
 800098c:	4a21      	ldr	r2, [pc, #132]	; (8000a14 <GPIO_IRQ_config+0xa4>)
 800098e:	4694      	mov	ip, r2
 8000990:	4463      	add	r3, ip
 8000992:	681a      	ldr	r2, [r3, #0]
 8000994:	687b      	ldr	r3, [r7, #4]
 8000996:	7a9b      	ldrb	r3, [r3, #10]
 8000998:	0019      	movs	r1, r3
 800099a:	2303      	movs	r3, #3
 800099c:	400b      	ands	r3, r1
 800099e:	00db      	lsls	r3, r3, #3
 80009a0:	3304      	adds	r3, #4
 80009a2:	21ff      	movs	r1, #255	; 0xff
 80009a4:	4099      	lsls	r1, r3
 80009a6:	000b      	movs	r3, r1
 80009a8:	43db      	mvns	r3, r3
 80009aa:	0019      	movs	r1, r3
 80009ac:	0003      	movs	r3, r0
 80009ae:	009b      	lsls	r3, r3, #2
 80009b0:	4818      	ldr	r0, [pc, #96]	; (8000a14 <GPIO_IRQ_config+0xa4>)
 80009b2:	4684      	mov	ip, r0
 80009b4:	4463      	add	r3, ip
 80009b6:	400a      	ands	r2, r1
 80009b8:	601a      	str	r2, [r3, #0]
		*(NVIC_IPR + (pGPIO_irq->GPIO_pin_config.GPIO_IRQ_number / 4)) |=  pGPIO_irq->GPIO_pin_config.GPIO_IRQ_priority << (pGPIO_irq->GPIO_pin_config.GPIO_IRQ_number % 4 * 8 + 4);
 80009ba:	687b      	ldr	r3, [r7, #4]
 80009bc:	7a9b      	ldrb	r3, [r3, #10]
 80009be:	089b      	lsrs	r3, r3, #2
 80009c0:	b2d9      	uxtb	r1, r3
 80009c2:	000b      	movs	r3, r1
 80009c4:	009b      	lsls	r3, r3, #2
 80009c6:	4a13      	ldr	r2, [pc, #76]	; (8000a14 <GPIO_IRQ_config+0xa4>)
 80009c8:	4694      	mov	ip, r2
 80009ca:	4463      	add	r3, ip
 80009cc:	681a      	ldr	r2, [r3, #0]
 80009ce:	687b      	ldr	r3, [r7, #4]
 80009d0:	7adb      	ldrb	r3, [r3, #11]
 80009d2:	0018      	movs	r0, r3
 80009d4:	687b      	ldr	r3, [r7, #4]
 80009d6:	7a9b      	ldrb	r3, [r3, #10]
 80009d8:	001c      	movs	r4, r3
 80009da:	2303      	movs	r3, #3
 80009dc:	4023      	ands	r3, r4
 80009de:	00db      	lsls	r3, r3, #3
 80009e0:	3304      	adds	r3, #4
 80009e2:	4098      	lsls	r0, r3
 80009e4:	0003      	movs	r3, r0
 80009e6:	0018      	movs	r0, r3
 80009e8:	000b      	movs	r3, r1
 80009ea:	009b      	lsls	r3, r3, #2
 80009ec:	4909      	ldr	r1, [pc, #36]	; (8000a14 <GPIO_IRQ_config+0xa4>)
 80009ee:	468c      	mov	ip, r1
 80009f0:	4463      	add	r3, ip
 80009f2:	4302      	orrs	r2, r0
 80009f4:	601a      	str	r2, [r3, #0]

		//enable global interrupt
		*(NVIC_ISER) |= 1<<pGPIO_irq->GPIO_pin_config.GPIO_IRQ_number;
 80009f6:	4b08      	ldr	r3, [pc, #32]	; (8000a18 <GPIO_IRQ_config+0xa8>)
 80009f8:	681a      	ldr	r2, [r3, #0]
 80009fa:	687b      	ldr	r3, [r7, #4]
 80009fc:	7a9b      	ldrb	r3, [r3, #10]
 80009fe:	0019      	movs	r1, r3
 8000a00:	2301      	movs	r3, #1
 8000a02:	408b      	lsls	r3, r1
 8000a04:	0019      	movs	r1, r3
 8000a06:	4b04      	ldr	r3, [pc, #16]	; (8000a18 <GPIO_IRQ_config+0xa8>)
 8000a08:	430a      	orrs	r2, r1
 8000a0a:	601a      	str	r2, [r3, #0]
	}
}
 8000a0c:	46c0      	nop			; (mov r8, r8)
 8000a0e:	46bd      	mov	sp, r7
 8000a10:	b003      	add	sp, #12
 8000a12:	bd90      	pop	{r4, r7, pc}
 8000a14:	e000e400 	.word	0xe000e400
 8000a18:	e000e100 	.word	0xe000e100

08000a1c <main>:





int main(void) {
 8000a1c:	b580      	push	{r7, lr}
 8000a1e:	af00      	add	r7, sp, #0

	PLL_clk(PLLMUL_4);
 8000a20:	2002      	movs	r0, #2
 8000a22:	f7ff fcad 	bl	8000380 <PLL_clk>
	memset(rx_buffer,0,sizeof(rx_buffer));
 8000a26:	4b61      	ldr	r3, [pc, #388]	; (8000bac <main+0x190>)
 8000a28:	2264      	movs	r2, #100	; 0x64
 8000a2a:	2100      	movs	r1, #0
 8000a2c:	0018      	movs	r0, r3
 8000a2e:	f000 f94b 	bl	8000cc8 <memset>

	LED = (GPIO_handle*)(malloc(sizeof(GPIO_handle)));
 8000a32:	2010      	movs	r0, #16
 8000a34:	f000 f93e 	bl	8000cb4 <malloc>
 8000a38:	0003      	movs	r3, r0
 8000a3a:	001a      	movs	r2, r3
 8000a3c:	4b5c      	ldr	r3, [pc, #368]	; (8000bb0 <main+0x194>)
 8000a3e:	601a      	str	r2, [r3, #0]
	memset(LED,0,sizeof(GPIO_handle));
 8000a40:	4b5b      	ldr	r3, [pc, #364]	; (8000bb0 <main+0x194>)
 8000a42:	681b      	ldr	r3, [r3, #0]
 8000a44:	2210      	movs	r2, #16
 8000a46:	2100      	movs	r1, #0
 8000a48:	0018      	movs	r0, r3
 8000a4a:	f000 f93d 	bl	8000cc8 <memset>
	LED->GPIO_addr = GPIOC;
 8000a4e:	4b58      	ldr	r3, [pc, #352]	; (8000bb0 <main+0x194>)
 8000a50:	681b      	ldr	r3, [r3, #0]
 8000a52:	4a58      	ldr	r2, [pc, #352]	; (8000bb4 <main+0x198>)
 8000a54:	601a      	str	r2, [r3, #0]
	LED->GPIO_pin_config.GPIO_pin_number = 9;
 8000a56:	4b56      	ldr	r3, [pc, #344]	; (8000bb0 <main+0x194>)
 8000a58:	681b      	ldr	r3, [r3, #0]
 8000a5a:	2209      	movs	r2, #9
 8000a5c:	711a      	strb	r2, [r3, #4]
	LED->GPIO_pin_config.GPIO_pin_mode = GPIO_OUTPUT;
 8000a5e:	4b54      	ldr	r3, [pc, #336]	; (8000bb0 <main+0x194>)
 8000a60:	681b      	ldr	r3, [r3, #0]
 8000a62:	2201      	movs	r2, #1
 8000a64:	715a      	strb	r2, [r3, #5]
	LED->GPIO_pin_config.GPIO_pin_speed =  GPIO_SPEED_HIGH;
 8000a66:	4b52      	ldr	r3, [pc, #328]	; (8000bb0 <main+0x194>)
 8000a68:	681b      	ldr	r3, [r3, #0]
 8000a6a:	2203      	movs	r2, #3
 8000a6c:	719a      	strb	r2, [r3, #6]
	LED->GPIO_pin_config.GPIO_pin_OP_type = GPIO_OP_TYPE_PP;
 8000a6e:	4b50      	ldr	r3, [pc, #320]	; (8000bb0 <main+0x194>)
 8000a70:	681b      	ldr	r3, [r3, #0]
 8000a72:	2200      	movs	r2, #0
 8000a74:	721a      	strb	r2, [r3, #8]
	GPIO_init(LED);
 8000a76:	4b4e      	ldr	r3, [pc, #312]	; (8000bb0 <main+0x194>)
 8000a78:	681b      	ldr	r3, [r3, #0]
 8000a7a:	0018      	movs	r0, r3
 8000a7c:	f7ff fd84 	bl	8000588 <GPIO_init>


	LED_2 = (GPIO_handle*) (malloc(sizeof(GPIO_handle)));
 8000a80:	2010      	movs	r0, #16
 8000a82:	f000 f917 	bl	8000cb4 <malloc>
 8000a86:	0003      	movs	r3, r0
 8000a88:	001a      	movs	r2, r3
 8000a8a:	4b4b      	ldr	r3, [pc, #300]	; (8000bb8 <main+0x19c>)
 8000a8c:	601a      	str	r2, [r3, #0]
	memset(LED_2, 0, sizeof(GPIO_handle));
 8000a8e:	4b4a      	ldr	r3, [pc, #296]	; (8000bb8 <main+0x19c>)
 8000a90:	681b      	ldr	r3, [r3, #0]
 8000a92:	2210      	movs	r2, #16
 8000a94:	2100      	movs	r1, #0
 8000a96:	0018      	movs	r0, r3
 8000a98:	f000 f916 	bl	8000cc8 <memset>
	LED_2->GPIO_addr = GPIOC;
 8000a9c:	4b46      	ldr	r3, [pc, #280]	; (8000bb8 <main+0x19c>)
 8000a9e:	681b      	ldr	r3, [r3, #0]
 8000aa0:	4a44      	ldr	r2, [pc, #272]	; (8000bb4 <main+0x198>)
 8000aa2:	601a      	str	r2, [r3, #0]
	LED_2->GPIO_pin_config.GPIO_pin_number = 8;
 8000aa4:	4b44      	ldr	r3, [pc, #272]	; (8000bb8 <main+0x19c>)
 8000aa6:	681b      	ldr	r3, [r3, #0]
 8000aa8:	2208      	movs	r2, #8
 8000aaa:	711a      	strb	r2, [r3, #4]
	LED_2->GPIO_pin_config.GPIO_pin_mode = GPIO_OUTPUT;
 8000aac:	4b42      	ldr	r3, [pc, #264]	; (8000bb8 <main+0x19c>)
 8000aae:	681b      	ldr	r3, [r3, #0]
 8000ab0:	2201      	movs	r2, #1
 8000ab2:	715a      	strb	r2, [r3, #5]
	LED_2->GPIO_pin_config.GPIO_pin_speed = GPIO_SPEED_HIGH;
 8000ab4:	4b40      	ldr	r3, [pc, #256]	; (8000bb8 <main+0x19c>)
 8000ab6:	681b      	ldr	r3, [r3, #0]
 8000ab8:	2203      	movs	r2, #3
 8000aba:	719a      	strb	r2, [r3, #6]
	LED_2->GPIO_pin_config.GPIO_pin_OP_type = GPIO_OP_TYPE_PP;
 8000abc:	4b3e      	ldr	r3, [pc, #248]	; (8000bb8 <main+0x19c>)
 8000abe:	681b      	ldr	r3, [r3, #0]
 8000ac0:	2200      	movs	r2, #0
 8000ac2:	721a      	strb	r2, [r3, #8]
	GPIO_init(LED_2);
 8000ac4:	4b3c      	ldr	r3, [pc, #240]	; (8000bb8 <main+0x19c>)
 8000ac6:	681b      	ldr	r3, [r3, #0]
 8000ac8:	0018      	movs	r0, r3
 8000aca:	f7ff fd5d 	bl	8000588 <GPIO_init>


	BTN  = (GPIO_handle*)(malloc(sizeof(GPIO_handle)));
 8000ace:	2010      	movs	r0, #16
 8000ad0:	f000 f8f0 	bl	8000cb4 <malloc>
 8000ad4:	0003      	movs	r3, r0
 8000ad6:	001a      	movs	r2, r3
 8000ad8:	4b38      	ldr	r3, [pc, #224]	; (8000bbc <main+0x1a0>)
 8000ada:	601a      	str	r2, [r3, #0]
	memset(BTN,0,sizeof(GPIO_handle));
 8000adc:	4b37      	ldr	r3, [pc, #220]	; (8000bbc <main+0x1a0>)
 8000ade:	681b      	ldr	r3, [r3, #0]
 8000ae0:	2210      	movs	r2, #16
 8000ae2:	2100      	movs	r1, #0
 8000ae4:	0018      	movs	r0, r3
 8000ae6:	f000 f8ef 	bl	8000cc8 <memset>
	BTN->GPIO_addr = GPIOA;
 8000aea:	4b34      	ldr	r3, [pc, #208]	; (8000bbc <main+0x1a0>)
 8000aec:	681b      	ldr	r3, [r3, #0]
 8000aee:	2290      	movs	r2, #144	; 0x90
 8000af0:	05d2      	lsls	r2, r2, #23
 8000af2:	601a      	str	r2, [r3, #0]
	BTN->GPIO_pin_config.GPIO_pin_number = 0;
 8000af4:	4b31      	ldr	r3, [pc, #196]	; (8000bbc <main+0x1a0>)
 8000af6:	681b      	ldr	r3, [r3, #0]
 8000af8:	2200      	movs	r2, #0
 8000afa:	711a      	strb	r2, [r3, #4]
	BTN->GPIO_pin_config.GPIO_pin_mode = GPIO_EXTI;
 8000afc:	4b2f      	ldr	r3, [pc, #188]	; (8000bbc <main+0x1a0>)
 8000afe:	681b      	ldr	r3, [r3, #0]
 8000b00:	2204      	movs	r2, #4
 8000b02:	715a      	strb	r2, [r3, #5]
	BTN->GPIO_pin_config.GPIO_IRQ_edge = GPIO_IRQ_FT;
 8000b04:	4b2d      	ldr	r3, [pc, #180]	; (8000bbc <main+0x1a0>)
 8000b06:	681b      	ldr	r3, [r3, #0]
 8000b08:	2200      	movs	r2, #0
 8000b0a:	735a      	strb	r2, [r3, #13]
	BTN->GPIO_pin_config.GPIO_IRQ_mode = ENABLE;
 8000b0c:	4b2b      	ldr	r3, [pc, #172]	; (8000bbc <main+0x1a0>)
 8000b0e:	681b      	ldr	r3, [r3, #0]
 8000b10:	2201      	movs	r2, #1
 8000b12:	731a      	strb	r2, [r3, #12]
	BTN->GPIO_pin_config.GPIO_IRQ_number = 5;
 8000b14:	4b29      	ldr	r3, [pc, #164]	; (8000bbc <main+0x1a0>)
 8000b16:	681b      	ldr	r3, [r3, #0]
 8000b18:	2205      	movs	r2, #5
 8000b1a:	729a      	strb	r2, [r3, #10]
	BTN->GPIO_pin_config.GPIO_IRQ_priority = 10;
 8000b1c:	4b27      	ldr	r3, [pc, #156]	; (8000bbc <main+0x1a0>)
 8000b1e:	681b      	ldr	r3, [r3, #0]
 8000b20:	220a      	movs	r2, #10
 8000b22:	72da      	strb	r2, [r3, #11]
	GPIO_init(BTN);
 8000b24:	4b25      	ldr	r3, [pc, #148]	; (8000bbc <main+0x1a0>)
 8000b26:	681b      	ldr	r3, [r3, #0]
 8000b28:	0018      	movs	r0, r3
 8000b2a:	f7ff fd2d 	bl	8000588 <GPIO_init>


	GPIO_IRQ_config(BTN);
 8000b2e:	4b23      	ldr	r3, [pc, #140]	; (8000bbc <main+0x1a0>)
 8000b30:	681b      	ldr	r3, [r3, #0]
 8000b32:	0018      	movs	r0, r3
 8000b34:	f7ff ff1c 	bl	8000970 <GPIO_IRQ_config>


	pUSART = (USART_handle*)(malloc(sizeof(USART_handle)));
 8000b38:	2014      	movs	r0, #20
 8000b3a:	f000 f8bb 	bl	8000cb4 <malloc>
 8000b3e:	0003      	movs	r3, r0
 8000b40:	001a      	movs	r2, r3
 8000b42:	4b1f      	ldr	r3, [pc, #124]	; (8000bc0 <main+0x1a4>)
 8000b44:	601a      	str	r2, [r3, #0]
	memset(pUSART,0,sizeof(USART_handle));
 8000b46:	4b1e      	ldr	r3, [pc, #120]	; (8000bc0 <main+0x1a4>)
 8000b48:	681b      	ldr	r3, [r3, #0]
 8000b4a:	2214      	movs	r2, #20
 8000b4c:	2100      	movs	r1, #0
 8000b4e:	0018      	movs	r0, r3
 8000b50:	f000 f8ba 	bl	8000cc8 <memset>
	pUSART->base_addr = USART1;
 8000b54:	4b1a      	ldr	r3, [pc, #104]	; (8000bc0 <main+0x1a4>)
 8000b56:	681b      	ldr	r3, [r3, #0]
 8000b58:	4a1a      	ldr	r2, [pc, #104]	; (8000bc4 <main+0x1a8>)
 8000b5a:	601a      	str	r2, [r3, #0]
	pUSART->config.USART_mode = USART_TX_RX;
 8000b5c:	4b18      	ldr	r3, [pc, #96]	; (8000bc0 <main+0x1a4>)
 8000b5e:	681b      	ldr	r3, [r3, #0]
 8000b60:	220c      	movs	r2, #12
 8000b62:	711a      	strb	r2, [r3, #4]
	pUSART->config.USART_oversampling= USART_OVERSAMPLING_16;
 8000b64:	4b16      	ldr	r3, [pc, #88]	; (8000bc0 <main+0x1a4>)
 8000b66:	681b      	ldr	r3, [r3, #0]
 8000b68:	2200      	movs	r2, #0
 8000b6a:	73da      	strb	r2, [r3, #15]
	pUSART->config.USART_baudrate = 0x682;
 8000b6c:	4b14      	ldr	r3, [pc, #80]	; (8000bc0 <main+0x1a4>)
 8000b6e:	681b      	ldr	r3, [r3, #0]
 8000b70:	4a15      	ldr	r2, [pc, #84]	; (8000bc8 <main+0x1ac>)
 8000b72:	609a      	str	r2, [r3, #8]
	pUSART->config.USART_parity = DISABLE;
 8000b74:	4b12      	ldr	r3, [pc, #72]	; (8000bc0 <main+0x1a4>)
 8000b76:	681b      	ldr	r3, [r3, #0]
 8000b78:	2200      	movs	r2, #0
 8000b7a:	735a      	strb	r2, [r3, #13]
	pUSART->config.USART_word_len = USART_DATA_BIT_8;
 8000b7c:	4b10      	ldr	r3, [pc, #64]	; (8000bc0 <main+0x1a4>)
 8000b7e:	681b      	ldr	r3, [r3, #0]
 8000b80:	2200      	movs	r2, #0
 8000b82:	739a      	strb	r2, [r3, #14]
	pUSART->config.USART_stop = USART_STOP_1;
 8000b84:	4b0e      	ldr	r3, [pc, #56]	; (8000bc0 <main+0x1a4>)
 8000b86:	681b      	ldr	r3, [r3, #0]
 8000b88:	2200      	movs	r2, #0
 8000b8a:	731a      	strb	r2, [r3, #12]
	pUSART->config.USART_IRQ_number = 27;
 8000b8c:	4b0c      	ldr	r3, [pc, #48]	; (8000bc0 <main+0x1a4>)
 8000b8e:	681b      	ldr	r3, [r3, #0]
 8000b90:	221b      	movs	r2, #27
 8000b92:	745a      	strb	r2, [r3, #17]
	USART_init(pUSART);
 8000b94:	4b0a      	ldr	r3, [pc, #40]	; (8000bc0 <main+0x1a4>)
 8000b96:	681b      	ldr	r3, [r3, #0]
 8000b98:	0018      	movs	r0, r3
 8000b9a:	f7ff fae7 	bl	800016c <USART_init>
	USART_IRQ_config(pUSART);
 8000b9e:	4b08      	ldr	r3, [pc, #32]	; (8000bc0 <main+0x1a4>)
 8000ba0:	681b      	ldr	r3, [r3, #0]
 8000ba2:	0018      	movs	r0, r3
 8000ba4:	f7ff fbce 	bl	8000344 <USART_IRQ_config>



	while (1);
 8000ba8:	e7fe      	b.n	8000ba8 <main+0x18c>
 8000baa:	46c0      	nop			; (mov r8, r8)
 8000bac:	2000008c 	.word	0x2000008c
 8000bb0:	200000f4 	.word	0x200000f4
 8000bb4:	48000800 	.word	0x48000800
 8000bb8:	200000f8 	.word	0x200000f8
 8000bbc:	200000f0 	.word	0x200000f0
 8000bc0:	200000fc 	.word	0x200000fc
 8000bc4:	40013800 	.word	0x40013800
 8000bc8:	00000682 	.word	0x00000682

08000bcc <USART1_IRQHandler>:
}


void USART1_IRQHandler()
{
 8000bcc:	b5b0      	push	{r4, r5, r7, lr}
 8000bce:	af00      	add	r7, sp, #0
	rx_buffer[strlen(rx_buffer)] = (char) pUSART->base_addr->USART_RDR;
 8000bd0:	4b0c      	ldr	r3, [pc, #48]	; (8000c04 <USART1_IRQHandler+0x38>)
 8000bd2:	681b      	ldr	r3, [r3, #0]
 8000bd4:	681b      	ldr	r3, [r3, #0]
 8000bd6:	6a5c      	ldr	r4, [r3, #36]	; 0x24
 8000bd8:	4b0b      	ldr	r3, [pc, #44]	; (8000c08 <USART1_IRQHandler+0x3c>)
 8000bda:	0018      	movs	r0, r3
 8000bdc:	f7ff fa94 	bl	8000108 <strlen>
 8000be0:	0002      	movs	r2, r0
 8000be2:	b2e1      	uxtb	r1, r4
 8000be4:	4b08      	ldr	r3, [pc, #32]	; (8000c08 <USART1_IRQHandler+0x3c>)
 8000be6:	5499      	strb	r1, [r3, r2]
	pUSART->base_addr->USART_RQR |= 1 << 3;
 8000be8:	4b06      	ldr	r3, [pc, #24]	; (8000c04 <USART1_IRQHandler+0x38>)
 8000bea:	681b      	ldr	r3, [r3, #0]
 8000bec:	681b      	ldr	r3, [r3, #0]
 8000bee:	699a      	ldr	r2, [r3, #24]
 8000bf0:	4b04      	ldr	r3, [pc, #16]	; (8000c04 <USART1_IRQHandler+0x38>)
 8000bf2:	681b      	ldr	r3, [r3, #0]
 8000bf4:	681b      	ldr	r3, [r3, #0]
 8000bf6:	2108      	movs	r1, #8
 8000bf8:	430a      	orrs	r2, r1
 8000bfa:	619a      	str	r2, [r3, #24]
}
 8000bfc:	46c0      	nop			; (mov r8, r8)
 8000bfe:	46bd      	mov	sp, r7
 8000c00:	bdb0      	pop	{r4, r5, r7, pc}
 8000c02:	46c0      	nop			; (mov r8, r8)
 8000c04:	200000fc 	.word	0x200000fc
 8000c08:	2000008c 	.word	0x2000008c

08000c0c <EXTI0_1_IRQHandler>:

void EXTI0_1_IRQHandler()
{
 8000c0c:	b580      	push	{r7, lr}
 8000c0e:	b082      	sub	sp, #8
 8000c10:	af00      	add	r7, sp, #0

	for(int i = 0;i<100000;i++);
 8000c12:	2300      	movs	r3, #0
 8000c14:	607b      	str	r3, [r7, #4]
 8000c16:	e002      	b.n	8000c1e <EXTI0_1_IRQHandler+0x12>
 8000c18:	687b      	ldr	r3, [r7, #4]
 8000c1a:	3301      	adds	r3, #1
 8000c1c:	607b      	str	r3, [r7, #4]
 8000c1e:	687b      	ldr	r3, [r7, #4]
 8000c20:	4a0d      	ldr	r2, [pc, #52]	; (8000c58 <EXTI0_1_IRQHandler+0x4c>)
 8000c22:	4293      	cmp	r3, r2
 8000c24:	ddf8      	ble.n	8000c18 <EXTI0_1_IRQHandler+0xc>
	EXTI_reg *pREG = EXTI;
 8000c26:	4b0d      	ldr	r3, [pc, #52]	; (8000c5c <EXTI0_1_IRQHandler+0x50>)
 8000c28:	603b      	str	r3, [r7, #0]
	pREG->EXTI_PR |= 1<<0;
 8000c2a:	683b      	ldr	r3, [r7, #0]
 8000c2c:	695b      	ldr	r3, [r3, #20]
 8000c2e:	2201      	movs	r2, #1
 8000c30:	431a      	orrs	r2, r3
 8000c32:	683b      	ldr	r3, [r7, #0]
 8000c34:	615a      	str	r2, [r3, #20]
	USART_send(rx_buffer, pUSART);
 8000c36:	4b0a      	ldr	r3, [pc, #40]	; (8000c60 <EXTI0_1_IRQHandler+0x54>)
 8000c38:	681a      	ldr	r2, [r3, #0]
 8000c3a:	4b0a      	ldr	r3, [pc, #40]	; (8000c64 <EXTI0_1_IRQHandler+0x58>)
 8000c3c:	0011      	movs	r1, r2
 8000c3e:	0018      	movs	r0, r3
 8000c40:	f7ff fb54 	bl	80002ec <USART_send>
	GPIO_toggle(LED_2);
 8000c44:	4b08      	ldr	r3, [pc, #32]	; (8000c68 <EXTI0_1_IRQHandler+0x5c>)
 8000c46:	681b      	ldr	r3, [r3, #0]
 8000c48:	0018      	movs	r0, r3
 8000c4a:	f7ff fe7b 	bl	8000944 <GPIO_toggle>
}
 8000c4e:	46c0      	nop			; (mov r8, r8)
 8000c50:	46bd      	mov	sp, r7
 8000c52:	b002      	add	sp, #8
 8000c54:	bd80      	pop	{r7, pc}
 8000c56:	46c0      	nop			; (mov r8, r8)
 8000c58:	0001869f 	.word	0x0001869f
 8000c5c:	40010400 	.word	0x40010400
 8000c60:	200000fc 	.word	0x200000fc
 8000c64:	2000008c 	.word	0x2000008c
 8000c68:	200000f8 	.word	0x200000f8

08000c6c <__libc_init_array>:
 8000c6c:	b570      	push	{r4, r5, r6, lr}
 8000c6e:	2600      	movs	r6, #0
 8000c70:	4d0c      	ldr	r5, [pc, #48]	; (8000ca4 <__libc_init_array+0x38>)
 8000c72:	4c0d      	ldr	r4, [pc, #52]	; (8000ca8 <__libc_init_array+0x3c>)
 8000c74:	1b64      	subs	r4, r4, r5
 8000c76:	10a4      	asrs	r4, r4, #2
 8000c78:	42a6      	cmp	r6, r4
 8000c7a:	d109      	bne.n	8000c90 <__libc_init_array+0x24>
 8000c7c:	2600      	movs	r6, #0
 8000c7e:	f000 f8ad 	bl	8000ddc <_init>
 8000c82:	4d0a      	ldr	r5, [pc, #40]	; (8000cac <__libc_init_array+0x40>)
 8000c84:	4c0a      	ldr	r4, [pc, #40]	; (8000cb0 <__libc_init_array+0x44>)
 8000c86:	1b64      	subs	r4, r4, r5
 8000c88:	10a4      	asrs	r4, r4, #2
 8000c8a:	42a6      	cmp	r6, r4
 8000c8c:	d105      	bne.n	8000c9a <__libc_init_array+0x2e>
 8000c8e:	bd70      	pop	{r4, r5, r6, pc}
 8000c90:	00b3      	lsls	r3, r6, #2
 8000c92:	58eb      	ldr	r3, [r5, r3]
 8000c94:	4798      	blx	r3
 8000c96:	3601      	adds	r6, #1
 8000c98:	e7ee      	b.n	8000c78 <__libc_init_array+0xc>
 8000c9a:	00b3      	lsls	r3, r6, #2
 8000c9c:	58eb      	ldr	r3, [r5, r3]
 8000c9e:	4798      	blx	r3
 8000ca0:	3601      	adds	r6, #1
 8000ca2:	e7f2      	b.n	8000c8a <__libc_init_array+0x1e>
 8000ca4:	08000df4 	.word	0x08000df4
 8000ca8:	08000df4 	.word	0x08000df4
 8000cac:	08000df4 	.word	0x08000df4
 8000cb0:	08000df8 	.word	0x08000df8

08000cb4 <malloc>:
 8000cb4:	b510      	push	{r4, lr}
 8000cb6:	4b03      	ldr	r3, [pc, #12]	; (8000cc4 <malloc+0x10>)
 8000cb8:	0001      	movs	r1, r0
 8000cba:	6818      	ldr	r0, [r3, #0]
 8000cbc:	f000 f80c 	bl	8000cd8 <_malloc_r>
 8000cc0:	bd10      	pop	{r4, pc}
 8000cc2:	46c0      	nop			; (mov r8, r8)
 8000cc4:	20000000 	.word	0x20000000

08000cc8 <memset>:
 8000cc8:	0003      	movs	r3, r0
 8000cca:	1812      	adds	r2, r2, r0
 8000ccc:	4293      	cmp	r3, r2
 8000cce:	d100      	bne.n	8000cd2 <memset+0xa>
 8000cd0:	4770      	bx	lr
 8000cd2:	7019      	strb	r1, [r3, #0]
 8000cd4:	3301      	adds	r3, #1
 8000cd6:	e7f9      	b.n	8000ccc <memset+0x4>

08000cd8 <_malloc_r>:
 8000cd8:	2303      	movs	r3, #3
 8000cda:	b570      	push	{r4, r5, r6, lr}
 8000cdc:	1ccd      	adds	r5, r1, #3
 8000cde:	439d      	bics	r5, r3
 8000ce0:	3508      	adds	r5, #8
 8000ce2:	0006      	movs	r6, r0
 8000ce4:	2d0c      	cmp	r5, #12
 8000ce6:	d21e      	bcs.n	8000d26 <_malloc_r+0x4e>
 8000ce8:	250c      	movs	r5, #12
 8000cea:	42a9      	cmp	r1, r5
 8000cec:	d81d      	bhi.n	8000d2a <_malloc_r+0x52>
 8000cee:	0030      	movs	r0, r6
 8000cf0:	f000 f862 	bl	8000db8 <__malloc_lock>
 8000cf4:	4a25      	ldr	r2, [pc, #148]	; (8000d8c <_malloc_r+0xb4>)
 8000cf6:	6814      	ldr	r4, [r2, #0]
 8000cf8:	0021      	movs	r1, r4
 8000cfa:	2900      	cmp	r1, #0
 8000cfc:	d119      	bne.n	8000d32 <_malloc_r+0x5a>
 8000cfe:	4c24      	ldr	r4, [pc, #144]	; (8000d90 <_malloc_r+0xb8>)
 8000d00:	6823      	ldr	r3, [r4, #0]
 8000d02:	2b00      	cmp	r3, #0
 8000d04:	d103      	bne.n	8000d0e <_malloc_r+0x36>
 8000d06:	0030      	movs	r0, r6
 8000d08:	f000 f844 	bl	8000d94 <_sbrk_r>
 8000d0c:	6020      	str	r0, [r4, #0]
 8000d0e:	0029      	movs	r1, r5
 8000d10:	0030      	movs	r0, r6
 8000d12:	f000 f83f 	bl	8000d94 <_sbrk_r>
 8000d16:	1c43      	adds	r3, r0, #1
 8000d18:	d12b      	bne.n	8000d72 <_malloc_r+0x9a>
 8000d1a:	230c      	movs	r3, #12
 8000d1c:	0030      	movs	r0, r6
 8000d1e:	6033      	str	r3, [r6, #0]
 8000d20:	f000 f84b 	bl	8000dba <__malloc_unlock>
 8000d24:	e003      	b.n	8000d2e <_malloc_r+0x56>
 8000d26:	2d00      	cmp	r5, #0
 8000d28:	dadf      	bge.n	8000cea <_malloc_r+0x12>
 8000d2a:	230c      	movs	r3, #12
 8000d2c:	6033      	str	r3, [r6, #0]
 8000d2e:	2000      	movs	r0, #0
 8000d30:	bd70      	pop	{r4, r5, r6, pc}
 8000d32:	680b      	ldr	r3, [r1, #0]
 8000d34:	1b5b      	subs	r3, r3, r5
 8000d36:	d419      	bmi.n	8000d6c <_malloc_r+0x94>
 8000d38:	2b0b      	cmp	r3, #11
 8000d3a:	d903      	bls.n	8000d44 <_malloc_r+0x6c>
 8000d3c:	600b      	str	r3, [r1, #0]
 8000d3e:	18cc      	adds	r4, r1, r3
 8000d40:	6025      	str	r5, [r4, #0]
 8000d42:	e003      	b.n	8000d4c <_malloc_r+0x74>
 8000d44:	684b      	ldr	r3, [r1, #4]
 8000d46:	428c      	cmp	r4, r1
 8000d48:	d10d      	bne.n	8000d66 <_malloc_r+0x8e>
 8000d4a:	6013      	str	r3, [r2, #0]
 8000d4c:	0030      	movs	r0, r6
 8000d4e:	f000 f834 	bl	8000dba <__malloc_unlock>
 8000d52:	0020      	movs	r0, r4
 8000d54:	2207      	movs	r2, #7
 8000d56:	300b      	adds	r0, #11
 8000d58:	1d23      	adds	r3, r4, #4
 8000d5a:	4390      	bics	r0, r2
 8000d5c:	1ac3      	subs	r3, r0, r3
 8000d5e:	d0e7      	beq.n	8000d30 <_malloc_r+0x58>
 8000d60:	425a      	negs	r2, r3
 8000d62:	50e2      	str	r2, [r4, r3]
 8000d64:	e7e4      	b.n	8000d30 <_malloc_r+0x58>
 8000d66:	6063      	str	r3, [r4, #4]
 8000d68:	000c      	movs	r4, r1
 8000d6a:	e7ef      	b.n	8000d4c <_malloc_r+0x74>
 8000d6c:	000c      	movs	r4, r1
 8000d6e:	6849      	ldr	r1, [r1, #4]
 8000d70:	e7c3      	b.n	8000cfa <_malloc_r+0x22>
 8000d72:	2303      	movs	r3, #3
 8000d74:	1cc4      	adds	r4, r0, #3
 8000d76:	439c      	bics	r4, r3
 8000d78:	42a0      	cmp	r0, r4
 8000d7a:	d0e1      	beq.n	8000d40 <_malloc_r+0x68>
 8000d7c:	1a21      	subs	r1, r4, r0
 8000d7e:	0030      	movs	r0, r6
 8000d80:	f000 f808 	bl	8000d94 <_sbrk_r>
 8000d84:	1c43      	adds	r3, r0, #1
 8000d86:	d1db      	bne.n	8000d40 <_malloc_r+0x68>
 8000d88:	e7c7      	b.n	8000d1a <_malloc_r+0x42>
 8000d8a:	46c0      	nop			; (mov r8, r8)
 8000d8c:	20000080 	.word	0x20000080
 8000d90:	20000084 	.word	0x20000084

08000d94 <_sbrk_r>:
 8000d94:	2300      	movs	r3, #0
 8000d96:	b570      	push	{r4, r5, r6, lr}
 8000d98:	4c06      	ldr	r4, [pc, #24]	; (8000db4 <_sbrk_r+0x20>)
 8000d9a:	0005      	movs	r5, r0
 8000d9c:	0008      	movs	r0, r1
 8000d9e:	6023      	str	r3, [r4, #0]
 8000da0:	f000 f80c 	bl	8000dbc <_sbrk>
 8000da4:	1c43      	adds	r3, r0, #1
 8000da6:	d103      	bne.n	8000db0 <_sbrk_r+0x1c>
 8000da8:	6823      	ldr	r3, [r4, #0]
 8000daa:	2b00      	cmp	r3, #0
 8000dac:	d000      	beq.n	8000db0 <_sbrk_r+0x1c>
 8000dae:	602b      	str	r3, [r5, #0]
 8000db0:	bd70      	pop	{r4, r5, r6, pc}
 8000db2:	46c0      	nop			; (mov r8, r8)
 8000db4:	20000100 	.word	0x20000100

08000db8 <__malloc_lock>:
 8000db8:	4770      	bx	lr

08000dba <__malloc_unlock>:
 8000dba:	4770      	bx	lr

08000dbc <_sbrk>:
 8000dbc:	4b05      	ldr	r3, [pc, #20]	; (8000dd4 <_sbrk+0x18>)
 8000dbe:	0002      	movs	r2, r0
 8000dc0:	6819      	ldr	r1, [r3, #0]
 8000dc2:	2900      	cmp	r1, #0
 8000dc4:	d101      	bne.n	8000dca <_sbrk+0xe>
 8000dc6:	4904      	ldr	r1, [pc, #16]	; (8000dd8 <_sbrk+0x1c>)
 8000dc8:	6019      	str	r1, [r3, #0]
 8000dca:	6818      	ldr	r0, [r3, #0]
 8000dcc:	1882      	adds	r2, r0, r2
 8000dce:	601a      	str	r2, [r3, #0]
 8000dd0:	4770      	bx	lr
 8000dd2:	46c0      	nop			; (mov r8, r8)
 8000dd4:	20000088 	.word	0x20000088
 8000dd8:	20000108 	.word	0x20000108

08000ddc <_init>:
 8000ddc:	b5f8      	push	{r3, r4, r5, r6, r7, lr}
 8000dde:	46c0      	nop			; (mov r8, r8)
 8000de0:	bcf8      	pop	{r3, r4, r5, r6, r7}
 8000de2:	bc08      	pop	{r3}
 8000de4:	469e      	mov	lr, r3
 8000de6:	4770      	bx	lr

08000de8 <_fini>:
 8000de8:	b5f8      	push	{r3, r4, r5, r6, r7, lr}
 8000dea:	46c0      	nop			; (mov r8, r8)
 8000dec:	bcf8      	pop	{r3, r4, r5, r6, r7}
 8000dee:	bc08      	pop	{r3}
 8000df0:	469e      	mov	lr, r3
 8000df2:	4770      	bx	lr
